ARM GAS  /tmp/cc79Q4NK.s 			page 1


   1              		.cpu cortex-m4
   2              		.eabi_attribute 27, 1
   3              		.eabi_attribute 28, 1
   4              		.eabi_attribute 20, 1
   5              		.eabi_attribute 21, 1
   6              		.eabi_attribute 23, 3
   7              		.eabi_attribute 24, 1
   8              		.eabi_attribute 25, 1
   9              		.eabi_attribute 26, 1
  10              		.eabi_attribute 30, 1
  11              		.eabi_attribute 34, 1
  12              		.eabi_attribute 18, 4
  13              		.file	"bsp_driver_sd.c"
  14              		.text
  15              	.Ltext0:
  16              		.cfi_sections	.debug_frame
  17              		.section	.text.SD_DMAConfigTx,"ax",%progbits
  18              		.align	1
  19              		.arch armv7e-m
  20              		.syntax unified
  21              		.thumb
  22              		.thumb_func
  23              		.fpu fpv4-sp-d16
  25              	SD_DMAConfigTx:
  26              	.LVL0:
  27              	.LFB133:
  28              		.file 1 "FATFS/Target/bsp_driver_sd.c"
   1:FATFS/Target/bsp_driver_sd.c **** /* USER CODE BEGIN Header */
   2:FATFS/Target/bsp_driver_sd.c **** /**
   3:FATFS/Target/bsp_driver_sd.c ****  ******************************************************************************
   4:FATFS/Target/bsp_driver_sd.c ****  * @file    bsp_driver_sd.c for L4 (based on stm32l4r9i_eval_sd.c)
   5:FATFS/Target/bsp_driver_sd.c ****  * @brief   This file includes a generic uSD card driver.
   6:FATFS/Target/bsp_driver_sd.c ****  *          To be completed by the user according to the board used for the project.
   7:FATFS/Target/bsp_driver_sd.c ****  * @note    Some functions generated as weak: they can be overridden by
   8:FATFS/Target/bsp_driver_sd.c ****  *          - code in user files
   9:FATFS/Target/bsp_driver_sd.c ****  *          - or BSP code from the FW pack files
  10:FATFS/Target/bsp_driver_sd.c ****  *          if such files are added to the generated project (by the user).
  11:FATFS/Target/bsp_driver_sd.c ****  ******************************************************************************
  12:FATFS/Target/bsp_driver_sd.c ****   * @attention
  13:FATFS/Target/bsp_driver_sd.c ****   *
  14:FATFS/Target/bsp_driver_sd.c ****   * Copyright (c) 2023 STMicroelectronics.
  15:FATFS/Target/bsp_driver_sd.c ****   * All rights reserved.
  16:FATFS/Target/bsp_driver_sd.c ****   *
  17:FATFS/Target/bsp_driver_sd.c ****   * This software is licensed under terms that can be found in the LICENSE file
  18:FATFS/Target/bsp_driver_sd.c ****   * in the root directory of this software component.
  19:FATFS/Target/bsp_driver_sd.c ****   * If no LICENSE file comes with this software, it is provided AS-IS.
  20:FATFS/Target/bsp_driver_sd.c ****   *
  21:FATFS/Target/bsp_driver_sd.c ****  ******************************************************************************
  22:FATFS/Target/bsp_driver_sd.c ****  */
  23:FATFS/Target/bsp_driver_sd.c **** /* USER CODE END Header */
  24:FATFS/Target/bsp_driver_sd.c **** 
  25:FATFS/Target/bsp_driver_sd.c **** #ifdef OLD_API
  26:FATFS/Target/bsp_driver_sd.c **** /* kept to avoid issue when migrating old projects. */
  27:FATFS/Target/bsp_driver_sd.c **** /* USER CODE BEGIN 0 */
  28:FATFS/Target/bsp_driver_sd.c **** 
  29:FATFS/Target/bsp_driver_sd.c **** /* USER CODE END 0 */
  30:FATFS/Target/bsp_driver_sd.c **** #else
ARM GAS  /tmp/cc79Q4NK.s 			page 2


  31:FATFS/Target/bsp_driver_sd.c **** /* USER CODE BEGIN FirstSection */
  32:FATFS/Target/bsp_driver_sd.c **** /* can be used to modify / undefine following code or add new definitions */
  33:FATFS/Target/bsp_driver_sd.c **** /* USER CODE END FirstSection */
  34:FATFS/Target/bsp_driver_sd.c **** /* Includes ------------------------------------------------------------------*/
  35:FATFS/Target/bsp_driver_sd.c **** #include "bsp_driver_sd.h"
  36:FATFS/Target/bsp_driver_sd.c **** 
  37:FATFS/Target/bsp_driver_sd.c **** /* Extern variables ---------------------------------------------------------*/
  38:FATFS/Target/bsp_driver_sd.c **** 
  39:FATFS/Target/bsp_driver_sd.c **** extern SD_HandleTypeDef hsd1;
  40:FATFS/Target/bsp_driver_sd.c **** 
  41:FATFS/Target/bsp_driver_sd.c **** /* USER CODE BEGIN BeforeInitSection */
  42:FATFS/Target/bsp_driver_sd.c **** 
  43:FATFS/Target/bsp_driver_sd.c **** 
  44:FATFS/Target/bsp_driver_sd.c **** 
  45:FATFS/Target/bsp_driver_sd.c **** /* can be used to modify / undefine following code or add code */
  46:FATFS/Target/bsp_driver_sd.c **** 
  47:FATFS/Target/bsp_driver_sd.c ****  static HAL_StatusTypeDef SD_DMAConfigRx(SD_HandleTypeDef *hsd)
  48:FATFS/Target/bsp_driver_sd.c ****   {
  49:FATFS/Target/bsp_driver_sd.c ****     static DMA_HandleTypeDef hdma_rx;
  50:FATFS/Target/bsp_driver_sd.c ****     HAL_StatusTypeDef status = HAL_ERROR;
  51:FATFS/Target/bsp_driver_sd.c ****   
  52:FATFS/Target/bsp_driver_sd.c ****     /* Configure DMA Rx parameters */
  53:FATFS/Target/bsp_driver_sd.c ****     hdma_rx.Init.Request             = DMA_REQUEST_7;
  54:FATFS/Target/bsp_driver_sd.c ****     hdma_rx.Init.Direction           = DMA_PERIPH_TO_MEMORY;
  55:FATFS/Target/bsp_driver_sd.c ****     hdma_rx.Init.PeriphInc           = DMA_PINC_DISABLE;
  56:FATFS/Target/bsp_driver_sd.c ****     hdma_rx.Init.MemInc              = DMA_MINC_ENABLE;
  57:FATFS/Target/bsp_driver_sd.c ****     hdma_rx.Init.PeriphDataAlignment = DMA_PDATAALIGN_WORD;
  58:FATFS/Target/bsp_driver_sd.c ****     hdma_rx.Init.MemDataAlignment    = DMA_MDATAALIGN_WORD;
  59:FATFS/Target/bsp_driver_sd.c ****     hdma_rx.Init.Priority            = DMA_PRIORITY_VERY_HIGH;
  60:FATFS/Target/bsp_driver_sd.c ****   
  61:FATFS/Target/bsp_driver_sd.c ****     hdma_rx.Instance = DMA2_Channel4;
  62:FATFS/Target/bsp_driver_sd.c ****   
  63:FATFS/Target/bsp_driver_sd.c ****     /* Associate the DMA handle */
  64:FATFS/Target/bsp_driver_sd.c ****     __HAL_LINKDMA(hsd, hdmarx, hdma_rx);
  65:FATFS/Target/bsp_driver_sd.c ****   
  66:FATFS/Target/bsp_driver_sd.c ****     /* Stop any ongoing transfer and reset the state*/
  67:FATFS/Target/bsp_driver_sd.c ****     HAL_DMA_Abort(&hdma_rx);
  68:FATFS/Target/bsp_driver_sd.c ****   
  69:FATFS/Target/bsp_driver_sd.c ****     /* Deinitialize the Channel for new transfer */
  70:FATFS/Target/bsp_driver_sd.c ****     HAL_DMA_DeInit(&hdma_rx);
  71:FATFS/Target/bsp_driver_sd.c ****   
  72:FATFS/Target/bsp_driver_sd.c ****     /* Configure the DMA Channel */
  73:FATFS/Target/bsp_driver_sd.c ****     status = HAL_DMA_Init(&hdma_rx);
  74:FATFS/Target/bsp_driver_sd.c ****   
  75:FATFS/Target/bsp_driver_sd.c ****     /* NVIC configuration for DMA transfer complete interrupt */
  76:FATFS/Target/bsp_driver_sd.c ****     HAL_NVIC_SetPriority(DMA2_Channel4_IRQn, 6, 0);
  77:FATFS/Target/bsp_driver_sd.c ****     HAL_NVIC_EnableIRQ(DMA2_Channel4_IRQn);
  78:FATFS/Target/bsp_driver_sd.c ****   
  79:FATFS/Target/bsp_driver_sd.c ****     return (status);
  80:FATFS/Target/bsp_driver_sd.c ****   }
  81:FATFS/Target/bsp_driver_sd.c ****   
  82:FATFS/Target/bsp_driver_sd.c ****   /**
  83:FATFS/Target/bsp_driver_sd.c ****     * @brief Configure the DMA to transmit data to the SD card
  84:FATFS/Target/bsp_driver_sd.c ****     * @retval
  85:FATFS/Target/bsp_driver_sd.c ****     *  HAL_ERROR or HAL_OK
  86:FATFS/Target/bsp_driver_sd.c ****     */
  87:FATFS/Target/bsp_driver_sd.c ****   static HAL_StatusTypeDef SD_DMAConfigTx(SD_HandleTypeDef *hsd)
ARM GAS  /tmp/cc79Q4NK.s 			page 3


  88:FATFS/Target/bsp_driver_sd.c ****   {
  29              		.loc 1 88 3 view -0
  30              		.cfi_startproc
  31              		@ args = 0, pretend = 0, frame = 0
  32              		@ frame_needed = 0, uses_anonymous_args = 0
  33              		.loc 1 88 3 is_stmt 0 view .LVU1
  34 0000 38B5     		push	{r3, r4, r5, lr}
  35              	.LCFI0:
  36              		.cfi_def_cfa_offset 16
  37              		.cfi_offset 3, -16
  38              		.cfi_offset 4, -12
  39              		.cfi_offset 5, -8
  40              		.cfi_offset 14, -4
  89:FATFS/Target/bsp_driver_sd.c ****     static DMA_HandleTypeDef hdma_tx;
  41              		.loc 1 89 5 is_stmt 1 view .LVU2
  90:FATFS/Target/bsp_driver_sd.c ****     HAL_StatusTypeDef status;
  42              		.loc 1 90 5 view .LVU3
  91:FATFS/Target/bsp_driver_sd.c ****   
  92:FATFS/Target/bsp_driver_sd.c ****     /* Configure DMA Tx parameters */
  93:FATFS/Target/bsp_driver_sd.c ****     hdma_tx.Init.Request             = DMA_REQUEST_7;
  43              		.loc 1 93 5 view .LVU4
  44              		.loc 1 93 38 is_stmt 0 view .LVU5
  45 0002 154C     		ldr	r4, .L3
  46 0004 0723     		movs	r3, #7
  47 0006 6360     		str	r3, [r4, #4]
  94:FATFS/Target/bsp_driver_sd.c ****     hdma_tx.Init.Direction           = DMA_MEMORY_TO_PERIPH;
  48              		.loc 1 94 5 is_stmt 1 view .LVU6
  49              		.loc 1 94 38 is_stmt 0 view .LVU7
  50 0008 1023     		movs	r3, #16
  51 000a A360     		str	r3, [r4, #8]
  95:FATFS/Target/bsp_driver_sd.c ****     hdma_tx.Init.PeriphInc           = DMA_PINC_DISABLE;
  52              		.loc 1 95 5 is_stmt 1 view .LVU8
  53              		.loc 1 95 38 is_stmt 0 view .LVU9
  54 000c 0025     		movs	r5, #0
  55 000e E560     		str	r5, [r4, #12]
  96:FATFS/Target/bsp_driver_sd.c ****     hdma_tx.Init.MemInc              = DMA_MINC_ENABLE;
  56              		.loc 1 96 5 is_stmt 1 view .LVU10
  57              		.loc 1 96 38 is_stmt 0 view .LVU11
  58 0010 8023     		movs	r3, #128
  59 0012 2361     		str	r3, [r4, #16]
  97:FATFS/Target/bsp_driver_sd.c ****     hdma_tx.Init.PeriphDataAlignment = DMA_PDATAALIGN_WORD;
  60              		.loc 1 97 5 is_stmt 1 view .LVU12
  61              		.loc 1 97 38 is_stmt 0 view .LVU13
  62 0014 4FF40073 		mov	r3, #512
  63 0018 6361     		str	r3, [r4, #20]
  98:FATFS/Target/bsp_driver_sd.c ****     hdma_tx.Init.MemDataAlignment    = DMA_MDATAALIGN_WORD;
  64              		.loc 1 98 5 is_stmt 1 view .LVU14
  65              		.loc 1 98 38 is_stmt 0 view .LVU15
  66 001a 4FF40063 		mov	r3, #2048
  67 001e A361     		str	r3, [r4, #24]
  99:FATFS/Target/bsp_driver_sd.c ****     hdma_tx.Init.Priority            = DMA_PRIORITY_VERY_HIGH;
  68              		.loc 1 99 5 is_stmt 1 view .LVU16
  69              		.loc 1 99 38 is_stmt 0 view .LVU17
  70 0020 4FF44053 		mov	r3, #12288
  71 0024 2362     		str	r3, [r4, #32]
 100:FATFS/Target/bsp_driver_sd.c ****   
 101:FATFS/Target/bsp_driver_sd.c ****     hdma_tx.Instance = DMA2_Channel4;
ARM GAS  /tmp/cc79Q4NK.s 			page 4


  72              		.loc 1 101 5 is_stmt 1 view .LVU18
  73              		.loc 1 101 22 is_stmt 0 view .LVU19
  74 0026 0D4B     		ldr	r3, .L3+4
  75 0028 2360     		str	r3, [r4]
 102:FATFS/Target/bsp_driver_sd.c ****   
 103:FATFS/Target/bsp_driver_sd.c ****     /* Associate the DMA handle */
 104:FATFS/Target/bsp_driver_sd.c ****     __HAL_LINKDMA(hsd, hdmatx, hdma_tx);
  76              		.loc 1 104 5 is_stmt 1 view .LVU20
  77              		.loc 1 104 5 view .LVU21
  78 002a C463     		str	r4, [r0, #60]
  79              		.loc 1 104 5 view .LVU22
  80 002c A062     		str	r0, [r4, #40]
  81              		.loc 1 104 5 view .LVU23
 105:FATFS/Target/bsp_driver_sd.c ****   
 106:FATFS/Target/bsp_driver_sd.c ****     /* Stop any ongoing transfer and reset the state*/
 107:FATFS/Target/bsp_driver_sd.c ****     HAL_DMA_Abort(&hdma_tx);
  82              		.loc 1 107 5 view .LVU24
  83 002e 2046     		mov	r0, r4
  84              	.LVL1:
  85              		.loc 1 107 5 is_stmt 0 view .LVU25
  86 0030 FFF7FEFF 		bl	HAL_DMA_Abort
  87              	.LVL2:
 108:FATFS/Target/bsp_driver_sd.c ****   
 109:FATFS/Target/bsp_driver_sd.c ****     /* Deinitialize the Channel for new transfer */
 110:FATFS/Target/bsp_driver_sd.c ****     HAL_DMA_DeInit(&hdma_tx);
  88              		.loc 1 110 5 is_stmt 1 view .LVU26
  89 0034 2046     		mov	r0, r4
  90 0036 FFF7FEFF 		bl	HAL_DMA_DeInit
  91              	.LVL3:
 111:FATFS/Target/bsp_driver_sd.c ****   
 112:FATFS/Target/bsp_driver_sd.c ****     /* Configure the DMA Channel */
 113:FATFS/Target/bsp_driver_sd.c ****     status = HAL_DMA_Init(&hdma_tx);
  92              		.loc 1 113 5 view .LVU27
  93              		.loc 1 113 14 is_stmt 0 view .LVU28
  94 003a 2046     		mov	r0, r4
  95 003c FFF7FEFF 		bl	HAL_DMA_Init
  96              	.LVL4:
  97 0040 0446     		mov	r4, r0
  98              	.LVL5:
 114:FATFS/Target/bsp_driver_sd.c ****   
 115:FATFS/Target/bsp_driver_sd.c ****     /* NVIC configuration for DMA transfer complete interrupt */
 116:FATFS/Target/bsp_driver_sd.c ****     HAL_NVIC_SetPriority(DMA2_Channel4_IRQn, 6, 0);
  99              		.loc 1 116 5 is_stmt 1 view .LVU29
 100 0042 2A46     		mov	r2, r5
 101 0044 0621     		movs	r1, #6
 102 0046 3B20     		movs	r0, #59
 103 0048 FFF7FEFF 		bl	HAL_NVIC_SetPriority
 104              	.LVL6:
 117:FATFS/Target/bsp_driver_sd.c ****     HAL_NVIC_EnableIRQ(DMA2_Channel4_IRQn);
 105              		.loc 1 117 5 view .LVU30
 106 004c 3B20     		movs	r0, #59
 107 004e FFF7FEFF 		bl	HAL_NVIC_EnableIRQ
 108              	.LVL7:
 118:FATFS/Target/bsp_driver_sd.c ****   
 119:FATFS/Target/bsp_driver_sd.c ****     return (status);
 109              		.loc 1 119 5 view .LVU31
 120:FATFS/Target/bsp_driver_sd.c ****   }
ARM GAS  /tmp/cc79Q4NK.s 			page 5


 110              		.loc 1 120 3 is_stmt 0 view .LVU32
 111 0052 2046     		mov	r0, r4
 112 0054 38BD     		pop	{r3, r4, r5, pc}
 113              	.LVL8:
 114              	.L4:
 115              		.loc 1 120 3 view .LVU33
 116 0056 00BF     		.align	2
 117              	.L3:
 118 0058 00000000 		.word	.LANCHOR0
 119 005c 44040240 		.word	1073873988
 120              		.cfi_endproc
 121              	.LFE133:
 123              		.section	.text.SD_DMAConfigRx,"ax",%progbits
 124              		.align	1
 125              		.syntax unified
 126              		.thumb
 127              		.thumb_func
 128              		.fpu fpv4-sp-d16
 130              	SD_DMAConfigRx:
 131              	.LVL9:
 132              	.LFB132:
  48:FATFS/Target/bsp_driver_sd.c ****     static DMA_HandleTypeDef hdma_rx;
 133              		.loc 1 48 3 is_stmt 1 view -0
 134              		.cfi_startproc
 135              		@ args = 0, pretend = 0, frame = 0
 136              		@ frame_needed = 0, uses_anonymous_args = 0
  48:FATFS/Target/bsp_driver_sd.c ****     static DMA_HandleTypeDef hdma_rx;
 137              		.loc 1 48 3 is_stmt 0 view .LVU35
 138 0000 38B5     		push	{r3, r4, r5, lr}
 139              	.LCFI1:
 140              		.cfi_def_cfa_offset 16
 141              		.cfi_offset 3, -16
 142              		.cfi_offset 4, -12
 143              		.cfi_offset 5, -8
 144              		.cfi_offset 14, -4
  49:FATFS/Target/bsp_driver_sd.c ****     HAL_StatusTypeDef status = HAL_ERROR;
 145              		.loc 1 49 5 is_stmt 1 view .LVU36
  50:FATFS/Target/bsp_driver_sd.c ****   
 146              		.loc 1 50 5 view .LVU37
 147              	.LVL10:
  53:FATFS/Target/bsp_driver_sd.c ****     hdma_rx.Init.Direction           = DMA_PERIPH_TO_MEMORY;
 148              		.loc 1 53 5 view .LVU38
  53:FATFS/Target/bsp_driver_sd.c ****     hdma_rx.Init.Direction           = DMA_PERIPH_TO_MEMORY;
 149              		.loc 1 53 38 is_stmt 0 view .LVU39
 150 0002 144C     		ldr	r4, .L7
 151 0004 0723     		movs	r3, #7
 152 0006 6360     		str	r3, [r4, #4]
  54:FATFS/Target/bsp_driver_sd.c ****     hdma_rx.Init.PeriphInc           = DMA_PINC_DISABLE;
 153              		.loc 1 54 5 is_stmt 1 view .LVU40
  54:FATFS/Target/bsp_driver_sd.c ****     hdma_rx.Init.PeriphInc           = DMA_PINC_DISABLE;
 154              		.loc 1 54 38 is_stmt 0 view .LVU41
 155 0008 0025     		movs	r5, #0
 156 000a A560     		str	r5, [r4, #8]
  55:FATFS/Target/bsp_driver_sd.c ****     hdma_rx.Init.MemInc              = DMA_MINC_ENABLE;
 157              		.loc 1 55 5 is_stmt 1 view .LVU42
  55:FATFS/Target/bsp_driver_sd.c ****     hdma_rx.Init.MemInc              = DMA_MINC_ENABLE;
 158              		.loc 1 55 38 is_stmt 0 view .LVU43
ARM GAS  /tmp/cc79Q4NK.s 			page 6


 159 000c E560     		str	r5, [r4, #12]
  56:FATFS/Target/bsp_driver_sd.c ****     hdma_rx.Init.PeriphDataAlignment = DMA_PDATAALIGN_WORD;
 160              		.loc 1 56 5 is_stmt 1 view .LVU44
  56:FATFS/Target/bsp_driver_sd.c ****     hdma_rx.Init.PeriphDataAlignment = DMA_PDATAALIGN_WORD;
 161              		.loc 1 56 38 is_stmt 0 view .LVU45
 162 000e 8023     		movs	r3, #128
 163 0010 2361     		str	r3, [r4, #16]
  57:FATFS/Target/bsp_driver_sd.c ****     hdma_rx.Init.MemDataAlignment    = DMA_MDATAALIGN_WORD;
 164              		.loc 1 57 5 is_stmt 1 view .LVU46
  57:FATFS/Target/bsp_driver_sd.c ****     hdma_rx.Init.MemDataAlignment    = DMA_MDATAALIGN_WORD;
 165              		.loc 1 57 38 is_stmt 0 view .LVU47
 166 0012 4FF40073 		mov	r3, #512
 167 0016 6361     		str	r3, [r4, #20]
  58:FATFS/Target/bsp_driver_sd.c ****     hdma_rx.Init.Priority            = DMA_PRIORITY_VERY_HIGH;
 168              		.loc 1 58 5 is_stmt 1 view .LVU48
  58:FATFS/Target/bsp_driver_sd.c ****     hdma_rx.Init.Priority            = DMA_PRIORITY_VERY_HIGH;
 169              		.loc 1 58 38 is_stmt 0 view .LVU49
 170 0018 4FF40063 		mov	r3, #2048
 171 001c A361     		str	r3, [r4, #24]
  59:FATFS/Target/bsp_driver_sd.c ****   
 172              		.loc 1 59 5 is_stmt 1 view .LVU50
  59:FATFS/Target/bsp_driver_sd.c ****   
 173              		.loc 1 59 38 is_stmt 0 view .LVU51
 174 001e 4FF44053 		mov	r3, #12288
 175 0022 2362     		str	r3, [r4, #32]
  61:FATFS/Target/bsp_driver_sd.c ****   
 176              		.loc 1 61 5 is_stmt 1 view .LVU52
  61:FATFS/Target/bsp_driver_sd.c ****   
 177              		.loc 1 61 22 is_stmt 0 view .LVU53
 178 0024 0C4B     		ldr	r3, .L7+4
 179 0026 2360     		str	r3, [r4]
  64:FATFS/Target/bsp_driver_sd.c ****   
 180              		.loc 1 64 5 is_stmt 1 view .LVU54
  64:FATFS/Target/bsp_driver_sd.c ****   
 181              		.loc 1 64 5 view .LVU55
 182 0028 0464     		str	r4, [r0, #64]
  64:FATFS/Target/bsp_driver_sd.c ****   
 183              		.loc 1 64 5 view .LVU56
 184 002a A062     		str	r0, [r4, #40]
  64:FATFS/Target/bsp_driver_sd.c ****   
 185              		.loc 1 64 5 view .LVU57
  67:FATFS/Target/bsp_driver_sd.c ****   
 186              		.loc 1 67 5 view .LVU58
 187 002c 2046     		mov	r0, r4
 188              	.LVL11:
  67:FATFS/Target/bsp_driver_sd.c ****   
 189              		.loc 1 67 5 is_stmt 0 view .LVU59
 190 002e FFF7FEFF 		bl	HAL_DMA_Abort
 191              	.LVL12:
  70:FATFS/Target/bsp_driver_sd.c ****   
 192              		.loc 1 70 5 is_stmt 1 view .LVU60
 193 0032 2046     		mov	r0, r4
 194 0034 FFF7FEFF 		bl	HAL_DMA_DeInit
 195              	.LVL13:
  73:FATFS/Target/bsp_driver_sd.c ****   
 196              		.loc 1 73 5 view .LVU61
  73:FATFS/Target/bsp_driver_sd.c ****   
ARM GAS  /tmp/cc79Q4NK.s 			page 7


 197              		.loc 1 73 14 is_stmt 0 view .LVU62
 198 0038 2046     		mov	r0, r4
 199 003a FFF7FEFF 		bl	HAL_DMA_Init
 200              	.LVL14:
 201 003e 0446     		mov	r4, r0
 202              	.LVL15:
  76:FATFS/Target/bsp_driver_sd.c ****     HAL_NVIC_EnableIRQ(DMA2_Channel4_IRQn);
 203              		.loc 1 76 5 is_stmt 1 view .LVU63
 204 0040 2A46     		mov	r2, r5
 205 0042 0621     		movs	r1, #6
 206 0044 3B20     		movs	r0, #59
 207 0046 FFF7FEFF 		bl	HAL_NVIC_SetPriority
 208              	.LVL16:
  77:FATFS/Target/bsp_driver_sd.c ****   
 209              		.loc 1 77 5 view .LVU64
 210 004a 3B20     		movs	r0, #59
 211 004c FFF7FEFF 		bl	HAL_NVIC_EnableIRQ
 212              	.LVL17:
  79:FATFS/Target/bsp_driver_sd.c ****   }
 213              		.loc 1 79 5 view .LVU65
  80:FATFS/Target/bsp_driver_sd.c ****   
 214              		.loc 1 80 3 is_stmt 0 view .LVU66
 215 0050 2046     		mov	r0, r4
 216 0052 38BD     		pop	{r3, r4, r5, pc}
 217              	.LVL18:
 218              	.L8:
  80:FATFS/Target/bsp_driver_sd.c ****   
 219              		.loc 1 80 3 view .LVU67
 220              		.align	2
 221              	.L7:
 222 0054 00000000 		.word	.LANCHOR1
 223 0058 44040240 		.word	1073873988
 224              		.cfi_endproc
 225              	.LFE132:
 227              		.section	.text.BSP_SD_WriteBlocks_DMA,"ax",%progbits
 228              		.align	1
 229              		.global	BSP_SD_WriteBlocks_DMA
 230              		.syntax unified
 231              		.thumb
 232              		.thumb_func
 233              		.fpu fpv4-sp-d16
 235              	BSP_SD_WriteBlocks_DMA:
 236              	.LVL19:
 237              	.LFB134:
 121:FATFS/Target/bsp_driver_sd.c **** 
 122:FATFS/Target/bsp_driver_sd.c **** 
 123:FATFS/Target/bsp_driver_sd.c **** uint8_t BSP_SD_WriteBlocks_DMA(uint32_t *pData, uint32_t WriteAddr, uint32_t NumOfBlocks)
 124:FATFS/Target/bsp_driver_sd.c **** {
 238              		.loc 1 124 1 is_stmt 1 view -0
 239              		.cfi_startproc
 240              		@ args = 0, pretend = 0, frame = 0
 241              		@ frame_needed = 0, uses_anonymous_args = 0
 242              		.loc 1 124 1 is_stmt 0 view .LVU69
 243 0000 70B5     		push	{r4, r5, r6, lr}
 244              	.LCFI2:
 245              		.cfi_def_cfa_offset 16
 246              		.cfi_offset 4, -16
ARM GAS  /tmp/cc79Q4NK.s 			page 8


 247              		.cfi_offset 5, -12
 248              		.cfi_offset 6, -8
 249              		.cfi_offset 14, -4
 250 0002 0446     		mov	r4, r0
 251 0004 0D46     		mov	r5, r1
 252 0006 1646     		mov	r6, r2
 125:FATFS/Target/bsp_driver_sd.c ****   uint8_t sd_state = MSD_OK;
 253              		.loc 1 125 3 is_stmt 1 view .LVU70
 254              	.LVL20:
 126:FATFS/Target/bsp_driver_sd.c **** 
 127:FATFS/Target/bsp_driver_sd.c ****   // Invalidate the dma rx handle
 128:FATFS/Target/bsp_driver_sd.c ****   hsd1.hdmarx = NULL;
 255              		.loc 1 128 3 view .LVU71
 256              		.loc 1 128 15 is_stmt 0 view .LVU72
 257 0008 0948     		ldr	r0, .L15
 258              	.LVL21:
 259              		.loc 1 128 15 view .LVU73
 260 000a 0023     		movs	r3, #0
 261 000c 0364     		str	r3, [r0, #64]
 129:FATFS/Target/bsp_driver_sd.c **** 
 130:FATFS/Target/bsp_driver_sd.c ****   // Prepare the dma channel for a read operation
 131:FATFS/Target/bsp_driver_sd.c ****   sd_state = SD_DMAConfigTx(&hsd1);
 262              		.loc 1 131 3 is_stmt 1 view .LVU74
 263              		.loc 1 131 14 is_stmt 0 view .LVU75
 264 000e FFF7FEFF 		bl	SD_DMAConfigTx
 265              	.LVL22:
 132:FATFS/Target/bsp_driver_sd.c **** 
 133:FATFS/Target/bsp_driver_sd.c ****   if(sd_state == HAL_OK)
 266              		.loc 1 133 3 is_stmt 1 view .LVU76
 267              		.loc 1 133 5 is_stmt 0 view .LVU77
 268 0012 0346     		mov	r3, r0
 269 0014 18B1     		cbz	r0, .L14
 270              	.LVL23:
 271              	.L10:
 134:FATFS/Target/bsp_driver_sd.c ****   {
 135:FATFS/Target/bsp_driver_sd.c ****     /* Write block(s) in DMA transfer mode */
 136:FATFS/Target/bsp_driver_sd.c ****     sd_state = HAL_SD_WriteBlocks_DMA(&hsd1, (uint8_t *)pData, WriteAddr, NumOfBlocks);
 137:FATFS/Target/bsp_driver_sd.c ****   }
 138:FATFS/Target/bsp_driver_sd.c **** 
 139:FATFS/Target/bsp_driver_sd.c ****   if( sd_state == HAL_OK)
 272              		.loc 1 139 3 is_stmt 1 view .LVU78
 273              		.loc 1 139 5 is_stmt 0 view .LVU79
 274 0016 03B1     		cbz	r3, .L11
 140:FATFS/Target/bsp_driver_sd.c ****   {
 141:FATFS/Target/bsp_driver_sd.c ****     return MSD_OK;
 142:FATFS/Target/bsp_driver_sd.c ****   }
 143:FATFS/Target/bsp_driver_sd.c ****   else
 144:FATFS/Target/bsp_driver_sd.c ****   {
 145:FATFS/Target/bsp_driver_sd.c ****     return MSD_ERROR;
 275              		.loc 1 145 12 view .LVU80
 276 0018 0123     		movs	r3, #1
 277              	.LVL24:
 278              	.L11:
 146:FATFS/Target/bsp_driver_sd.c ****   }
 147:FATFS/Target/bsp_driver_sd.c **** 
 148:FATFS/Target/bsp_driver_sd.c ****   return sd_state;
 149:FATFS/Target/bsp_driver_sd.c **** }
ARM GAS  /tmp/cc79Q4NK.s 			page 9


 279              		.loc 1 149 1 view .LVU81
 280 001a 1846     		mov	r0, r3
 281 001c 70BD     		pop	{r4, r5, r6, pc}
 282              	.LVL25:
 283              	.L14:
 136:FATFS/Target/bsp_driver_sd.c ****   }
 284              		.loc 1 136 5 is_stmt 1 view .LVU82
 136:FATFS/Target/bsp_driver_sd.c ****   }
 285              		.loc 1 136 16 is_stmt 0 view .LVU83
 286 001e 3346     		mov	r3, r6
 287 0020 2A46     		mov	r2, r5
 288 0022 2146     		mov	r1, r4
 289 0024 0248     		ldr	r0, .L15
 290              	.LVL26:
 136:FATFS/Target/bsp_driver_sd.c ****   }
 291              		.loc 1 136 16 view .LVU84
 292 0026 FFF7FEFF 		bl	HAL_SD_WriteBlocks_DMA
 293              	.LVL27:
 294 002a 0346     		mov	r3, r0
 295              	.LVL28:
 136:FATFS/Target/bsp_driver_sd.c ****   }
 296              		.loc 1 136 16 view .LVU85
 297 002c F3E7     		b	.L10
 298              	.L16:
 299 002e 00BF     		.align	2
 300              	.L15:
 301 0030 00000000 		.word	hsd1
 302              		.cfi_endproc
 303              	.LFE134:
 305              		.section	.text.BSP_SD_ReadBlocks_DMA,"ax",%progbits
 306              		.align	1
 307              		.global	BSP_SD_ReadBlocks_DMA
 308              		.syntax unified
 309              		.thumb
 310              		.thumb_func
 311              		.fpu fpv4-sp-d16
 313              	BSP_SD_ReadBlocks_DMA:
 314              	.LVL29:
 315              	.LFB135:
 150:FATFS/Target/bsp_driver_sd.c **** 
 151:FATFS/Target/bsp_driver_sd.c **** //Override DMA read functions
 152:FATFS/Target/bsp_driver_sd.c **** uint8_t BSP_SD_ReadBlocks_DMA(uint32_t *pData, uint32_t ReadAddr, uint32_t NumOfBlocks)
 153:FATFS/Target/bsp_driver_sd.c **** {
 316              		.loc 1 153 1 is_stmt 1 view -0
 317              		.cfi_startproc
 318              		@ args = 0, pretend = 0, frame = 0
 319              		@ frame_needed = 0, uses_anonymous_args = 0
 320              		.loc 1 153 1 is_stmt 0 view .LVU87
 321 0000 70B5     		push	{r4, r5, r6, lr}
 322              	.LCFI3:
 323              		.cfi_def_cfa_offset 16
 324              		.cfi_offset 4, -16
 325              		.cfi_offset 5, -12
 326              		.cfi_offset 6, -8
 327              		.cfi_offset 14, -4
 328 0002 0446     		mov	r4, r0
 329 0004 0D46     		mov	r5, r1
ARM GAS  /tmp/cc79Q4NK.s 			page 10


 330 0006 1646     		mov	r6, r2
 154:FATFS/Target/bsp_driver_sd.c ****   uint8_t sd_state = MSD_OK;
 331              		.loc 1 154 3 is_stmt 1 view .LVU88
 332              	.LVL30:
 155:FATFS/Target/bsp_driver_sd.c ****   /* Invalidate the dma tx handle*/
 156:FATFS/Target/bsp_driver_sd.c ****   hsd1.hdmatx = NULL;
 333              		.loc 1 156 3 view .LVU89
 334              		.loc 1 156 15 is_stmt 0 view .LVU90
 335 0008 0948     		ldr	r0, .L23
 336              	.LVL31:
 337              		.loc 1 156 15 view .LVU91
 338 000a 0023     		movs	r3, #0
 339 000c C363     		str	r3, [r0, #60]
 157:FATFS/Target/bsp_driver_sd.c **** 
 158:FATFS/Target/bsp_driver_sd.c ****   /* Prepare the dma channel for a read operation */
 159:FATFS/Target/bsp_driver_sd.c ****   sd_state = SD_DMAConfigRx(&hsd1);
 340              		.loc 1 159 3 is_stmt 1 view .LVU92
 341              		.loc 1 159 14 is_stmt 0 view .LVU93
 342 000e FFF7FEFF 		bl	SD_DMAConfigRx
 343              	.LVL32:
 160:FATFS/Target/bsp_driver_sd.c **** 
 161:FATFS/Target/bsp_driver_sd.c ****   if(sd_state == HAL_OK)
 344              		.loc 1 161 3 is_stmt 1 view .LVU94
 345              		.loc 1 161 5 is_stmt 0 view .LVU95
 346 0012 0346     		mov	r3, r0
 347 0014 18B1     		cbz	r0, .L22
 348              	.LVL33:
 349              	.L18:
 162:FATFS/Target/bsp_driver_sd.c ****   {
 163:FATFS/Target/bsp_driver_sd.c ****        /* Read block(s) in DMA transfer mode */
 164:FATFS/Target/bsp_driver_sd.c ****         sd_state = HAL_SD_ReadBlocks_DMA(&hsd1, (uint8_t *)pData, ReadAddr, NumOfBlocks);
 165:FATFS/Target/bsp_driver_sd.c ****   }
 166:FATFS/Target/bsp_driver_sd.c **** 
 167:FATFS/Target/bsp_driver_sd.c ****   if( sd_state == HAL_OK)
 350              		.loc 1 167 3 is_stmt 1 view .LVU96
 351              		.loc 1 167 5 is_stmt 0 view .LVU97
 352 0016 03B1     		cbz	r3, .L19
 168:FATFS/Target/bsp_driver_sd.c ****   {
 169:FATFS/Target/bsp_driver_sd.c ****     return MSD_OK;
 170:FATFS/Target/bsp_driver_sd.c ****   }
 171:FATFS/Target/bsp_driver_sd.c ****   else
 172:FATFS/Target/bsp_driver_sd.c ****   {
 173:FATFS/Target/bsp_driver_sd.c ****     return MSD_ERROR;
 353              		.loc 1 173 12 view .LVU98
 354 0018 0123     		movs	r3, #1
 355              	.LVL34:
 356              	.L19:
 174:FATFS/Target/bsp_driver_sd.c ****   }
 175:FATFS/Target/bsp_driver_sd.c **** }
 357              		.loc 1 175 1 view .LVU99
 358 001a 1846     		mov	r0, r3
 359 001c 70BD     		pop	{r4, r5, r6, pc}
 360              	.LVL35:
 361              	.L22:
 164:FATFS/Target/bsp_driver_sd.c ****   }
 362              		.loc 1 164 9 is_stmt 1 view .LVU100
 164:FATFS/Target/bsp_driver_sd.c ****   }
ARM GAS  /tmp/cc79Q4NK.s 			page 11


 363              		.loc 1 164 20 is_stmt 0 view .LVU101
 364 001e 3346     		mov	r3, r6
 365 0020 2A46     		mov	r2, r5
 366 0022 2146     		mov	r1, r4
 367 0024 0248     		ldr	r0, .L23
 368              	.LVL36:
 164:FATFS/Target/bsp_driver_sd.c ****   }
 369              		.loc 1 164 20 view .LVU102
 370 0026 FFF7FEFF 		bl	HAL_SD_ReadBlocks_DMA
 371              	.LVL37:
 372 002a 0346     		mov	r3, r0
 373              	.LVL38:
 164:FATFS/Target/bsp_driver_sd.c ****   }
 374              		.loc 1 164 20 view .LVU103
 375 002c F3E7     		b	.L18
 376              	.L24:
 377 002e 00BF     		.align	2
 378              	.L23:
 379 0030 00000000 		.word	hsd1
 380              		.cfi_endproc
 381              	.LFE135:
 383              		.section	.text.BSP_SD_ITConfig,"ax",%progbits
 384              		.align	1
 385              		.weak	BSP_SD_ITConfig
 386              		.syntax unified
 387              		.thumb
 388              		.thumb_func
 389              		.fpu fpv4-sp-d16
 391              	BSP_SD_ITConfig:
 392              	.LFB137:
 176:FATFS/Target/bsp_driver_sd.c **** 
 177:FATFS/Target/bsp_driver_sd.c **** /* USER CODE END BeforeInitSection */
 178:FATFS/Target/bsp_driver_sd.c **** /**
 179:FATFS/Target/bsp_driver_sd.c ****   * @brief  Initializes the SD card device.
 180:FATFS/Target/bsp_driver_sd.c ****   * @retval SD status
 181:FATFS/Target/bsp_driver_sd.c ****   */
 182:FATFS/Target/bsp_driver_sd.c **** __weak uint8_t BSP_SD_Init(void)
 183:FATFS/Target/bsp_driver_sd.c **** {
 184:FATFS/Target/bsp_driver_sd.c ****   uint8_t sd_state = MSD_OK;
 185:FATFS/Target/bsp_driver_sd.c ****   /* Check if the SD card is plugged in the slot */
 186:FATFS/Target/bsp_driver_sd.c ****   if (BSP_SD_IsDetected() != SD_PRESENT)
 187:FATFS/Target/bsp_driver_sd.c ****   {
 188:FATFS/Target/bsp_driver_sd.c ****     return MSD_ERROR_SD_NOT_PRESENT;
 189:FATFS/Target/bsp_driver_sd.c ****   }
 190:FATFS/Target/bsp_driver_sd.c ****   /* HAL SD initialization */
 191:FATFS/Target/bsp_driver_sd.c ****   sd_state = HAL_SD_Init(&hsd1);
 192:FATFS/Target/bsp_driver_sd.c **** 
 193:FATFS/Target/bsp_driver_sd.c ****   return sd_state;
 194:FATFS/Target/bsp_driver_sd.c **** }
 195:FATFS/Target/bsp_driver_sd.c **** /* USER CODE BEGIN AfterInitSection */
 196:FATFS/Target/bsp_driver_sd.c **** /* can be used to modify previous code / undefine following code / add code */
 197:FATFS/Target/bsp_driver_sd.c **** /* USER CODE END AfterInitSection */
 198:FATFS/Target/bsp_driver_sd.c **** 
 199:FATFS/Target/bsp_driver_sd.c **** /* USER CODE BEGIN InterruptMode */
 200:FATFS/Target/bsp_driver_sd.c **** /**
 201:FATFS/Target/bsp_driver_sd.c ****   * @brief  Configures Interrupt mode for SD detection pin.
 202:FATFS/Target/bsp_driver_sd.c ****   * @retval Returns 0
ARM GAS  /tmp/cc79Q4NK.s 			page 12


 203:FATFS/Target/bsp_driver_sd.c ****   */
 204:FATFS/Target/bsp_driver_sd.c **** __weak uint8_t BSP_SD_ITConfig(void)
 205:FATFS/Target/bsp_driver_sd.c **** {
 393              		.loc 1 205 1 is_stmt 1 view -0
 394              		.cfi_startproc
 395              		@ args = 0, pretend = 0, frame = 0
 396              		@ frame_needed = 0, uses_anonymous_args = 0
 397              		@ link register save eliminated.
 206:FATFS/Target/bsp_driver_sd.c ****   /* Code to be updated by the user or replaced by one from the FW pack (in a stmxxxx_sd.c file) */
 207:FATFS/Target/bsp_driver_sd.c **** 
 208:FATFS/Target/bsp_driver_sd.c ****   return (uint8_t)0;
 398              		.loc 1 208 3 view .LVU105
 209:FATFS/Target/bsp_driver_sd.c **** }
 399              		.loc 1 209 1 is_stmt 0 view .LVU106
 400 0000 0020     		movs	r0, #0
 401 0002 7047     		bx	lr
 402              		.cfi_endproc
 403              	.LFE137:
 405              		.section	.text.BSP_SD_ReadBlocks,"ax",%progbits
 406              		.align	1
 407              		.weak	BSP_SD_ReadBlocks
 408              		.syntax unified
 409              		.thumb
 410              		.thumb_func
 411              		.fpu fpv4-sp-d16
 413              	BSP_SD_ReadBlocks:
 414              	.LVL39:
 415              	.LFB138:
 210:FATFS/Target/bsp_driver_sd.c **** 
 211:FATFS/Target/bsp_driver_sd.c **** /* USER CODE END InterruptMode */
 212:FATFS/Target/bsp_driver_sd.c **** 
 213:FATFS/Target/bsp_driver_sd.c **** /* USER CODE BEGIN BeforeReadBlocksSection */
 214:FATFS/Target/bsp_driver_sd.c **** /* can be used to modify previous code / undefine following code / add code */
 215:FATFS/Target/bsp_driver_sd.c **** /* USER CODE END BeforeReadBlocksSection */
 216:FATFS/Target/bsp_driver_sd.c **** /**
 217:FATFS/Target/bsp_driver_sd.c ****   * @brief  Reads block(s) from a specified address in an SD card, in polling mode.
 218:FATFS/Target/bsp_driver_sd.c ****   * @param  pData: Pointer to the buffer that will contain the data to transmit
 219:FATFS/Target/bsp_driver_sd.c ****   * @param  ReadAddr: Address from where data is to be read
 220:FATFS/Target/bsp_driver_sd.c ****   * @param  NumOfBlocks: Number of SD blocks to read
 221:FATFS/Target/bsp_driver_sd.c ****   * @param  Timeout: Timeout for read operation
 222:FATFS/Target/bsp_driver_sd.c ****   * @retval SD status
 223:FATFS/Target/bsp_driver_sd.c ****   */
 224:FATFS/Target/bsp_driver_sd.c **** __weak uint8_t BSP_SD_ReadBlocks(uint32_t *pData, uint32_t ReadAddr, uint32_t NumOfBlocks, uint32_t
 225:FATFS/Target/bsp_driver_sd.c **** {
 416              		.loc 1 225 1 is_stmt 1 view -0
 417              		.cfi_startproc
 418              		@ args = 0, pretend = 0, frame = 0
 419              		@ frame_needed = 0, uses_anonymous_args = 0
 420              		.loc 1 225 1 is_stmt 0 view .LVU108
 421 0000 00B5     		push	{lr}
 422              	.LCFI4:
 423              		.cfi_def_cfa_offset 4
 424              		.cfi_offset 14, -4
 425 0002 83B0     		sub	sp, sp, #12
 426              	.LCFI5:
 427              		.cfi_def_cfa_offset 16
 226:FATFS/Target/bsp_driver_sd.c ****   uint8_t sd_state = MSD_OK;
ARM GAS  /tmp/cc79Q4NK.s 			page 13


 428              		.loc 1 226 3 is_stmt 1 view .LVU109
 429              	.LVL40:
 227:FATFS/Target/bsp_driver_sd.c **** 
 228:FATFS/Target/bsp_driver_sd.c ****   if (HAL_SD_ReadBlocks(&hsd1, (uint8_t *)pData, ReadAddr, NumOfBlocks, Timeout) != HAL_OK)
 430              		.loc 1 228 3 view .LVU110
 431              		.loc 1 228 7 is_stmt 0 view .LVU111
 432 0004 0093     		str	r3, [sp]
 433 0006 1346     		mov	r3, r2
 434              	.LVL41:
 435              		.loc 1 228 7 view .LVU112
 436 0008 0A46     		mov	r2, r1
 437              	.LVL42:
 438              		.loc 1 228 7 view .LVU113
 439 000a 0146     		mov	r1, r0
 440              	.LVL43:
 441              		.loc 1 228 7 view .LVU114
 442 000c 0348     		ldr	r0, .L30
 443              	.LVL44:
 444              		.loc 1 228 7 view .LVU115
 445 000e FFF7FEFF 		bl	HAL_SD_ReadBlocks
 446              	.LVL45:
 447              		.loc 1 228 6 view .LVU116
 448 0012 00B1     		cbz	r0, .L27
 229:FATFS/Target/bsp_driver_sd.c ****   {
 230:FATFS/Target/bsp_driver_sd.c ****     sd_state = MSD_ERROR;
 449              		.loc 1 230 14 view .LVU117
 450 0014 0120     		movs	r0, #1
 451              	.L27:
 452              	.LVL46:
 231:FATFS/Target/bsp_driver_sd.c ****   }
 232:FATFS/Target/bsp_driver_sd.c **** 
 233:FATFS/Target/bsp_driver_sd.c ****   return sd_state;
 453              		.loc 1 233 3 is_stmt 1 view .LVU118
 234:FATFS/Target/bsp_driver_sd.c **** }
 454              		.loc 1 234 1 is_stmt 0 view .LVU119
 455 0016 03B0     		add	sp, sp, #12
 456              	.LCFI6:
 457              		.cfi_def_cfa_offset 4
 458              		@ sp needed
 459 0018 5DF804FB 		ldr	pc, [sp], #4
 460              	.L31:
 461              		.align	2
 462              	.L30:
 463 001c 00000000 		.word	hsd1
 464              		.cfi_endproc
 465              	.LFE138:
 467              		.section	.text.BSP_SD_WriteBlocks,"ax",%progbits
 468              		.align	1
 469              		.weak	BSP_SD_WriteBlocks
 470              		.syntax unified
 471              		.thumb
 472              		.thumb_func
 473              		.fpu fpv4-sp-d16
 475              	BSP_SD_WriteBlocks:
 476              	.LVL47:
 477              	.LFB139:
 235:FATFS/Target/bsp_driver_sd.c **** 
ARM GAS  /tmp/cc79Q4NK.s 			page 14


 236:FATFS/Target/bsp_driver_sd.c **** /* USER CODE BEGIN BeforeWriteBlocksSection */
 237:FATFS/Target/bsp_driver_sd.c **** /* can be used to modify previous code / undefine following code / add code */
 238:FATFS/Target/bsp_driver_sd.c **** /* USER CODE END BeforeWriteBlocksSection */
 239:FATFS/Target/bsp_driver_sd.c **** /**
 240:FATFS/Target/bsp_driver_sd.c ****   * @brief  Writes block(s) to a specified address in an SD card, in polling mode.
 241:FATFS/Target/bsp_driver_sd.c ****   * @param  pData: Pointer to the buffer that will contain the data to transmit
 242:FATFS/Target/bsp_driver_sd.c ****   * @param  WriteAddr: Address from where data is to be written
 243:FATFS/Target/bsp_driver_sd.c ****   * @param  NumOfBlocks: Number of SD blocks to write
 244:FATFS/Target/bsp_driver_sd.c ****   * @param  Timeout: Timeout for write operation
 245:FATFS/Target/bsp_driver_sd.c ****   * @retval SD status
 246:FATFS/Target/bsp_driver_sd.c ****   */
 247:FATFS/Target/bsp_driver_sd.c **** __weak uint8_t BSP_SD_WriteBlocks(uint32_t *pData, uint32_t WriteAddr, uint32_t NumOfBlocks, uint32
 248:FATFS/Target/bsp_driver_sd.c **** {
 478              		.loc 1 248 1 is_stmt 1 view -0
 479              		.cfi_startproc
 480              		@ args = 0, pretend = 0, frame = 0
 481              		@ frame_needed = 0, uses_anonymous_args = 0
 482              		.loc 1 248 1 is_stmt 0 view .LVU121
 483 0000 00B5     		push	{lr}
 484              	.LCFI7:
 485              		.cfi_def_cfa_offset 4
 486              		.cfi_offset 14, -4
 487 0002 83B0     		sub	sp, sp, #12
 488              	.LCFI8:
 489              		.cfi_def_cfa_offset 16
 249:FATFS/Target/bsp_driver_sd.c ****   uint8_t sd_state = MSD_OK;
 490              		.loc 1 249 3 is_stmt 1 view .LVU122
 491              	.LVL48:
 250:FATFS/Target/bsp_driver_sd.c **** 
 251:FATFS/Target/bsp_driver_sd.c ****   if (HAL_SD_WriteBlocks(&hsd1, (uint8_t *)pData, WriteAddr, NumOfBlocks, Timeout) != HAL_OK)
 492              		.loc 1 251 3 view .LVU123
 493              		.loc 1 251 7 is_stmt 0 view .LVU124
 494 0004 0093     		str	r3, [sp]
 495 0006 1346     		mov	r3, r2
 496              	.LVL49:
 497              		.loc 1 251 7 view .LVU125
 498 0008 0A46     		mov	r2, r1
 499              	.LVL50:
 500              		.loc 1 251 7 view .LVU126
 501 000a 0146     		mov	r1, r0
 502              	.LVL51:
 503              		.loc 1 251 7 view .LVU127
 504 000c 0348     		ldr	r0, .L36
 505              	.LVL52:
 506              		.loc 1 251 7 view .LVU128
 507 000e FFF7FEFF 		bl	HAL_SD_WriteBlocks
 508              	.LVL53:
 509              		.loc 1 251 6 view .LVU129
 510 0012 00B1     		cbz	r0, .L33
 252:FATFS/Target/bsp_driver_sd.c ****   {
 253:FATFS/Target/bsp_driver_sd.c ****     sd_state = MSD_ERROR;
 511              		.loc 1 253 14 view .LVU130
 512 0014 0120     		movs	r0, #1
 513              	.L33:
 514              	.LVL54:
 254:FATFS/Target/bsp_driver_sd.c ****   }
 255:FATFS/Target/bsp_driver_sd.c **** 
ARM GAS  /tmp/cc79Q4NK.s 			page 15


 256:FATFS/Target/bsp_driver_sd.c ****   return sd_state;
 515              		.loc 1 256 3 is_stmt 1 view .LVU131
 257:FATFS/Target/bsp_driver_sd.c **** }
 516              		.loc 1 257 1 is_stmt 0 view .LVU132
 517 0016 03B0     		add	sp, sp, #12
 518              	.LCFI9:
 519              		.cfi_def_cfa_offset 4
 520              		@ sp needed
 521 0018 5DF804FB 		ldr	pc, [sp], #4
 522              	.L37:
 523              		.align	2
 524              	.L36:
 525 001c 00000000 		.word	hsd1
 526              		.cfi_endproc
 527              	.LFE139:
 529              		.section	.text.BSP_SD_Erase,"ax",%progbits
 530              		.align	1
 531              		.weak	BSP_SD_Erase
 532              		.syntax unified
 533              		.thumb
 534              		.thumb_func
 535              		.fpu fpv4-sp-d16
 537              	BSP_SD_Erase:
 538              	.LVL55:
 539              	.LFB140:
 258:FATFS/Target/bsp_driver_sd.c **** 
 259:FATFS/Target/bsp_driver_sd.c **** 
 260:FATFS/Target/bsp_driver_sd.c **** 
 261:FATFS/Target/bsp_driver_sd.c **** /* USER CODE BEGIN BeforeEraseSection */
 262:FATFS/Target/bsp_driver_sd.c **** /* can be used to modify previous code / undefine following code / add code */
 263:FATFS/Target/bsp_driver_sd.c **** /* USER CODE END BeforeEraseSection */
 264:FATFS/Target/bsp_driver_sd.c **** /**
 265:FATFS/Target/bsp_driver_sd.c ****   * @brief  Erases the specified memory area of the given SD card.
 266:FATFS/Target/bsp_driver_sd.c ****   * @param  StartAddr: Start byte address
 267:FATFS/Target/bsp_driver_sd.c ****   * @param  EndAddr: End byte address
 268:FATFS/Target/bsp_driver_sd.c ****   * @retval SD status
 269:FATFS/Target/bsp_driver_sd.c ****   */
 270:FATFS/Target/bsp_driver_sd.c **** __weak uint8_t BSP_SD_Erase(uint32_t StartAddr, uint32_t EndAddr)
 271:FATFS/Target/bsp_driver_sd.c **** {
 540              		.loc 1 271 1 is_stmt 1 view -0
 541              		.cfi_startproc
 542              		@ args = 0, pretend = 0, frame = 0
 543              		@ frame_needed = 0, uses_anonymous_args = 0
 544              		.loc 1 271 1 is_stmt 0 view .LVU134
 545 0000 08B5     		push	{r3, lr}
 546              	.LCFI10:
 547              		.cfi_def_cfa_offset 8
 548              		.cfi_offset 3, -8
 549              		.cfi_offset 14, -4
 550 0002 0A46     		mov	r2, r1
 272:FATFS/Target/bsp_driver_sd.c ****   uint8_t sd_state = MSD_OK;
 551              		.loc 1 272 3 is_stmt 1 view .LVU135
 552              	.LVL56:
 273:FATFS/Target/bsp_driver_sd.c **** 
 274:FATFS/Target/bsp_driver_sd.c ****   if (HAL_SD_Erase(&hsd1, StartAddr, EndAddr) != HAL_OK)
 553              		.loc 1 274 3 view .LVU136
 554              		.loc 1 274 7 is_stmt 0 view .LVU137
ARM GAS  /tmp/cc79Q4NK.s 			page 16


 555 0004 0146     		mov	r1, r0
 556              	.LVL57:
 557              		.loc 1 274 7 view .LVU138
 558 0006 0348     		ldr	r0, .L42
 559              	.LVL58:
 560              		.loc 1 274 7 view .LVU139
 561 0008 FFF7FEFF 		bl	HAL_SD_Erase
 562              	.LVL59:
 563              		.loc 1 274 6 view .LVU140
 564 000c 00B1     		cbz	r0, .L39
 275:FATFS/Target/bsp_driver_sd.c ****   {
 276:FATFS/Target/bsp_driver_sd.c ****     sd_state = MSD_ERROR;
 565              		.loc 1 276 14 view .LVU141
 566 000e 0120     		movs	r0, #1
 567              	.L39:
 568              	.LVL60:
 277:FATFS/Target/bsp_driver_sd.c ****   }
 278:FATFS/Target/bsp_driver_sd.c **** 
 279:FATFS/Target/bsp_driver_sd.c ****   return sd_state;
 569              		.loc 1 279 3 is_stmt 1 view .LVU142
 280:FATFS/Target/bsp_driver_sd.c **** }
 570              		.loc 1 280 1 is_stmt 0 view .LVU143
 571 0010 08BD     		pop	{r3, pc}
 572              	.L43:
 573 0012 00BF     		.align	2
 574              	.L42:
 575 0014 00000000 		.word	hsd1
 576              		.cfi_endproc
 577              	.LFE140:
 579              		.section	.text.BSP_SD_GetCardState,"ax",%progbits
 580              		.align	1
 581              		.weak	BSP_SD_GetCardState
 582              		.syntax unified
 583              		.thumb
 584              		.thumb_func
 585              		.fpu fpv4-sp-d16
 587              	BSP_SD_GetCardState:
 588              	.LFB141:
 281:FATFS/Target/bsp_driver_sd.c **** 
 282:FATFS/Target/bsp_driver_sd.c **** /* USER CODE BEGIN BeforeGetCardStateSection */
 283:FATFS/Target/bsp_driver_sd.c **** /* can be used to modify previous code / undefine following code / add code */
 284:FATFS/Target/bsp_driver_sd.c **** /* USER CODE END BeforeGetCardStateSection */
 285:FATFS/Target/bsp_driver_sd.c **** 
 286:FATFS/Target/bsp_driver_sd.c **** /**
 287:FATFS/Target/bsp_driver_sd.c ****   * @brief  Gets the current SD card data status.
 288:FATFS/Target/bsp_driver_sd.c ****   * @param  None
 289:FATFS/Target/bsp_driver_sd.c ****   * @retval Data transfer state.
 290:FATFS/Target/bsp_driver_sd.c ****   *          This value can be one of the following values:
 291:FATFS/Target/bsp_driver_sd.c ****   *            @arg  SD_TRANSFER_OK: No data transfer is acting
 292:FATFS/Target/bsp_driver_sd.c ****   *            @arg  SD_TRANSFER_BUSY: Data transfer is acting
 293:FATFS/Target/bsp_driver_sd.c ****   */
 294:FATFS/Target/bsp_driver_sd.c **** __weak uint8_t BSP_SD_GetCardState(void)
 295:FATFS/Target/bsp_driver_sd.c **** {
 589              		.loc 1 295 1 is_stmt 1 view -0
 590              		.cfi_startproc
 591              		@ args = 0, pretend = 0, frame = 0
 592              		@ frame_needed = 0, uses_anonymous_args = 0
ARM GAS  /tmp/cc79Q4NK.s 			page 17


 593 0000 08B5     		push	{r3, lr}
 594              	.LCFI11:
 595              		.cfi_def_cfa_offset 8
 596              		.cfi_offset 3, -8
 597              		.cfi_offset 14, -4
 296:FATFS/Target/bsp_driver_sd.c ****   return ((HAL_SD_GetCardState(&hsd1) == HAL_SD_CARD_TRANSFER ) ? SD_TRANSFER_OK : SD_TRANSFER_BUSY
 598              		.loc 1 296 3 view .LVU145
 599              		.loc 1 296 12 is_stmt 0 view .LVU146
 600 0002 0348     		ldr	r0, .L46
 601 0004 FFF7FEFF 		bl	HAL_SD_GetCardState
 602              	.LVL61:
 297:FATFS/Target/bsp_driver_sd.c **** }
 603              		.loc 1 297 1 view .LVU147
 604 0008 0438     		subs	r0, r0, #4
 605 000a 18BF     		it	ne
 606 000c 0120     		movne	r0, #1
 607 000e 08BD     		pop	{r3, pc}
 608              	.L47:
 609              		.align	2
 610              	.L46:
 611 0010 00000000 		.word	hsd1
 612              		.cfi_endproc
 613              	.LFE141:
 615              		.section	.text.BSP_SD_GetCardInfo,"ax",%progbits
 616              		.align	1
 617              		.weak	BSP_SD_GetCardInfo
 618              		.syntax unified
 619              		.thumb
 620              		.thumb_func
 621              		.fpu fpv4-sp-d16
 623              	BSP_SD_GetCardInfo:
 624              	.LVL62:
 625              	.LFB142:
 298:FATFS/Target/bsp_driver_sd.c **** 
 299:FATFS/Target/bsp_driver_sd.c **** /**
 300:FATFS/Target/bsp_driver_sd.c ****   * @brief  Get SD information about specific SD card.
 301:FATFS/Target/bsp_driver_sd.c ****   * @param  CardInfo: Pointer to HAL_SD_CardInfoTypedef structure
 302:FATFS/Target/bsp_driver_sd.c ****   * @retval None
 303:FATFS/Target/bsp_driver_sd.c ****   */
 304:FATFS/Target/bsp_driver_sd.c **** __weak void BSP_SD_GetCardInfo(BSP_SD_CardInfo *CardInfo)
 305:FATFS/Target/bsp_driver_sd.c **** {
 626              		.loc 1 305 1 is_stmt 1 view -0
 627              		.cfi_startproc
 628              		@ args = 0, pretend = 0, frame = 0
 629              		@ frame_needed = 0, uses_anonymous_args = 0
 630              		.loc 1 305 1 is_stmt 0 view .LVU149
 631 0000 08B5     		push	{r3, lr}
 632              	.LCFI12:
 633              		.cfi_def_cfa_offset 8
 634              		.cfi_offset 3, -8
 635              		.cfi_offset 14, -4
 636 0002 0146     		mov	r1, r0
 306:FATFS/Target/bsp_driver_sd.c ****   /* Get SD card Information */
 307:FATFS/Target/bsp_driver_sd.c ****   HAL_SD_GetCardInfo(&hsd1, CardInfo);
 637              		.loc 1 307 3 is_stmt 1 view .LVU150
 638 0004 0148     		ldr	r0, .L50
 639              	.LVL63:
ARM GAS  /tmp/cc79Q4NK.s 			page 18


 640              		.loc 1 307 3 is_stmt 0 view .LVU151
 641 0006 FFF7FEFF 		bl	HAL_SD_GetCardInfo
 642              	.LVL64:
 308:FATFS/Target/bsp_driver_sd.c **** }
 643              		.loc 1 308 1 view .LVU152
 644 000a 08BD     		pop	{r3, pc}
 645              	.L51:
 646              		.align	2
 647              	.L50:
 648 000c 00000000 		.word	hsd1
 649              		.cfi_endproc
 650              	.LFE142:
 652              		.section	.text.BSP_SD_AbortCallback,"ax",%progbits
 653              		.align	1
 654              		.weak	BSP_SD_AbortCallback
 655              		.syntax unified
 656              		.thumb
 657              		.thumb_func
 658              		.fpu fpv4-sp-d16
 660              	BSP_SD_AbortCallback:
 661              	.LFB146:
 309:FATFS/Target/bsp_driver_sd.c **** 
 310:FATFS/Target/bsp_driver_sd.c **** /* USER CODE BEGIN BeforeCallBacksSection */
 311:FATFS/Target/bsp_driver_sd.c **** /* can be used to modify previous code / undefine following code / add code */
 312:FATFS/Target/bsp_driver_sd.c **** /* USER CODE END BeforeCallBacksSection */
 313:FATFS/Target/bsp_driver_sd.c **** /**
 314:FATFS/Target/bsp_driver_sd.c ****   * @brief SD Abort callbacks
 315:FATFS/Target/bsp_driver_sd.c ****   * @param hsd: SD handle
 316:FATFS/Target/bsp_driver_sd.c ****   * @retval None
 317:FATFS/Target/bsp_driver_sd.c ****   */
 318:FATFS/Target/bsp_driver_sd.c **** void HAL_SD_AbortCallback(SD_HandleTypeDef *hsd)
 319:FATFS/Target/bsp_driver_sd.c **** {
 320:FATFS/Target/bsp_driver_sd.c ****   BSP_SD_AbortCallback();
 321:FATFS/Target/bsp_driver_sd.c **** }
 322:FATFS/Target/bsp_driver_sd.c **** 
 323:FATFS/Target/bsp_driver_sd.c **** /**
 324:FATFS/Target/bsp_driver_sd.c ****   * @brief Tx Transfer completed callback
 325:FATFS/Target/bsp_driver_sd.c ****   * @param hsd: SD handle
 326:FATFS/Target/bsp_driver_sd.c ****   * @retval None
 327:FATFS/Target/bsp_driver_sd.c ****   */
 328:FATFS/Target/bsp_driver_sd.c **** void HAL_SD_TxCpltCallback(SD_HandleTypeDef *hsd)
 329:FATFS/Target/bsp_driver_sd.c **** {
 330:FATFS/Target/bsp_driver_sd.c ****   BSP_SD_WriteCpltCallback();
 331:FATFS/Target/bsp_driver_sd.c **** }
 332:FATFS/Target/bsp_driver_sd.c **** 
 333:FATFS/Target/bsp_driver_sd.c **** /**
 334:FATFS/Target/bsp_driver_sd.c ****   * @brief Rx Transfer completed callback
 335:FATFS/Target/bsp_driver_sd.c ****   * @param hsd: SD handle
 336:FATFS/Target/bsp_driver_sd.c ****   * @retval None
 337:FATFS/Target/bsp_driver_sd.c ****   */
 338:FATFS/Target/bsp_driver_sd.c **** void HAL_SD_RxCpltCallback(SD_HandleTypeDef *hsd)
 339:FATFS/Target/bsp_driver_sd.c **** {
 340:FATFS/Target/bsp_driver_sd.c ****   BSP_SD_ReadCpltCallback();
 341:FATFS/Target/bsp_driver_sd.c **** }
 342:FATFS/Target/bsp_driver_sd.c **** 
 343:FATFS/Target/bsp_driver_sd.c **** /* USER CODE BEGIN CallBacksSection_C */
 344:FATFS/Target/bsp_driver_sd.c **** /**
ARM GAS  /tmp/cc79Q4NK.s 			page 19


 345:FATFS/Target/bsp_driver_sd.c ****   * @brief BSP SD Abort callback
 346:FATFS/Target/bsp_driver_sd.c ****   * @retval None
 347:FATFS/Target/bsp_driver_sd.c ****   * @note empty (up to the user to fill it in or to remove it if useless)
 348:FATFS/Target/bsp_driver_sd.c ****   */
 349:FATFS/Target/bsp_driver_sd.c **** __weak void BSP_SD_AbortCallback(void)
 350:FATFS/Target/bsp_driver_sd.c **** {
 662              		.loc 1 350 1 is_stmt 1 view -0
 663              		.cfi_startproc
 664              		@ args = 0, pretend = 0, frame = 0
 665              		@ frame_needed = 0, uses_anonymous_args = 0
 666              		@ link register save eliminated.
 351:FATFS/Target/bsp_driver_sd.c **** 
 352:FATFS/Target/bsp_driver_sd.c **** }
 667              		.loc 1 352 1 view .LVU154
 668 0000 7047     		bx	lr
 669              		.cfi_endproc
 670              	.LFE146:
 672              		.section	.text.HAL_SD_AbortCallback,"ax",%progbits
 673              		.align	1
 674              		.global	HAL_SD_AbortCallback
 675              		.syntax unified
 676              		.thumb
 677              		.thumb_func
 678              		.fpu fpv4-sp-d16
 680              	HAL_SD_AbortCallback:
 681              	.LVL65:
 682              	.LFB143:
 319:FATFS/Target/bsp_driver_sd.c ****   BSP_SD_AbortCallback();
 683              		.loc 1 319 1 view -0
 684              		.cfi_startproc
 685              		@ args = 0, pretend = 0, frame = 0
 686              		@ frame_needed = 0, uses_anonymous_args = 0
 319:FATFS/Target/bsp_driver_sd.c ****   BSP_SD_AbortCallback();
 687              		.loc 1 319 1 is_stmt 0 view .LVU156
 688 0000 08B5     		push	{r3, lr}
 689              	.LCFI13:
 690              		.cfi_def_cfa_offset 8
 691              		.cfi_offset 3, -8
 692              		.cfi_offset 14, -4
 320:FATFS/Target/bsp_driver_sd.c **** }
 693              		.loc 1 320 3 is_stmt 1 view .LVU157
 694 0002 FFF7FEFF 		bl	BSP_SD_AbortCallback
 695              	.LVL66:
 321:FATFS/Target/bsp_driver_sd.c **** 
 696              		.loc 1 321 1 is_stmt 0 view .LVU158
 697 0006 08BD     		pop	{r3, pc}
 698              		.cfi_endproc
 699              	.LFE143:
 701              		.section	.text.BSP_SD_WriteCpltCallback,"ax",%progbits
 702              		.align	1
 703              		.weak	BSP_SD_WriteCpltCallback
 704              		.syntax unified
 705              		.thumb
 706              		.thumb_func
 707              		.fpu fpv4-sp-d16
 709              	BSP_SD_WriteCpltCallback:
 710              	.LFB147:
ARM GAS  /tmp/cc79Q4NK.s 			page 20


 353:FATFS/Target/bsp_driver_sd.c **** 
 354:FATFS/Target/bsp_driver_sd.c **** /**
 355:FATFS/Target/bsp_driver_sd.c ****   * @brief BSP Tx Transfer completed callback
 356:FATFS/Target/bsp_driver_sd.c ****   * @retval None
 357:FATFS/Target/bsp_driver_sd.c ****   * @note empty (up to the user to fill it in or to remove it if useless)
 358:FATFS/Target/bsp_driver_sd.c ****   */
 359:FATFS/Target/bsp_driver_sd.c **** __weak void BSP_SD_WriteCpltCallback(void)
 360:FATFS/Target/bsp_driver_sd.c **** {
 711              		.loc 1 360 1 is_stmt 1 view -0
 712              		.cfi_startproc
 713              		@ args = 0, pretend = 0, frame = 0
 714              		@ frame_needed = 0, uses_anonymous_args = 0
 715              		@ link register save eliminated.
 361:FATFS/Target/bsp_driver_sd.c **** 
 362:FATFS/Target/bsp_driver_sd.c **** }
 716              		.loc 1 362 1 view .LVU160
 717 0000 7047     		bx	lr
 718              		.cfi_endproc
 719              	.LFE147:
 721              		.section	.text.HAL_SD_TxCpltCallback,"ax",%progbits
 722              		.align	1
 723              		.global	HAL_SD_TxCpltCallback
 724              		.syntax unified
 725              		.thumb
 726              		.thumb_func
 727              		.fpu fpv4-sp-d16
 729              	HAL_SD_TxCpltCallback:
 730              	.LVL67:
 731              	.LFB144:
 329:FATFS/Target/bsp_driver_sd.c ****   BSP_SD_WriteCpltCallback();
 732              		.loc 1 329 1 view -0
 733              		.cfi_startproc
 734              		@ args = 0, pretend = 0, frame = 0
 735              		@ frame_needed = 0, uses_anonymous_args = 0
 329:FATFS/Target/bsp_driver_sd.c ****   BSP_SD_WriteCpltCallback();
 736              		.loc 1 329 1 is_stmt 0 view .LVU162
 737 0000 08B5     		push	{r3, lr}
 738              	.LCFI14:
 739              		.cfi_def_cfa_offset 8
 740              		.cfi_offset 3, -8
 741              		.cfi_offset 14, -4
 330:FATFS/Target/bsp_driver_sd.c **** }
 742              		.loc 1 330 3 is_stmt 1 view .LVU163
 743 0002 FFF7FEFF 		bl	BSP_SD_WriteCpltCallback
 744              	.LVL68:
 331:FATFS/Target/bsp_driver_sd.c **** 
 745              		.loc 1 331 1 is_stmt 0 view .LVU164
 746 0006 08BD     		pop	{r3, pc}
 747              		.cfi_endproc
 748              	.LFE144:
 750              		.section	.text.BSP_SD_ReadCpltCallback,"ax",%progbits
 751              		.align	1
 752              		.weak	BSP_SD_ReadCpltCallback
 753              		.syntax unified
 754              		.thumb
 755              		.thumb_func
 756              		.fpu fpv4-sp-d16
ARM GAS  /tmp/cc79Q4NK.s 			page 21


 758              	BSP_SD_ReadCpltCallback:
 759              	.LFB148:
 363:FATFS/Target/bsp_driver_sd.c **** 
 364:FATFS/Target/bsp_driver_sd.c **** /**
 365:FATFS/Target/bsp_driver_sd.c ****   * @brief BSP Rx Transfer completed callback
 366:FATFS/Target/bsp_driver_sd.c ****   * @retval None
 367:FATFS/Target/bsp_driver_sd.c ****   * @note empty (up to the user to fill it in or to remove it if useless)
 368:FATFS/Target/bsp_driver_sd.c ****   */
 369:FATFS/Target/bsp_driver_sd.c **** __weak void BSP_SD_ReadCpltCallback(void)
 370:FATFS/Target/bsp_driver_sd.c **** {
 760              		.loc 1 370 1 is_stmt 1 view -0
 761              		.cfi_startproc
 762              		@ args = 0, pretend = 0, frame = 0
 763              		@ frame_needed = 0, uses_anonymous_args = 0
 764              		@ link register save eliminated.
 371:FATFS/Target/bsp_driver_sd.c **** 
 372:FATFS/Target/bsp_driver_sd.c **** }
 765              		.loc 1 372 1 view .LVU166
 766 0000 7047     		bx	lr
 767              		.cfi_endproc
 768              	.LFE148:
 770              		.section	.text.HAL_SD_RxCpltCallback,"ax",%progbits
 771              		.align	1
 772              		.global	HAL_SD_RxCpltCallback
 773              		.syntax unified
 774              		.thumb
 775              		.thumb_func
 776              		.fpu fpv4-sp-d16
 778              	HAL_SD_RxCpltCallback:
 779              	.LVL69:
 780              	.LFB145:
 339:FATFS/Target/bsp_driver_sd.c ****   BSP_SD_ReadCpltCallback();
 781              		.loc 1 339 1 view -0
 782              		.cfi_startproc
 783              		@ args = 0, pretend = 0, frame = 0
 784              		@ frame_needed = 0, uses_anonymous_args = 0
 339:FATFS/Target/bsp_driver_sd.c ****   BSP_SD_ReadCpltCallback();
 785              		.loc 1 339 1 is_stmt 0 view .LVU168
 786 0000 08B5     		push	{r3, lr}
 787              	.LCFI15:
 788              		.cfi_def_cfa_offset 8
 789              		.cfi_offset 3, -8
 790              		.cfi_offset 14, -4
 340:FATFS/Target/bsp_driver_sd.c **** }
 791              		.loc 1 340 3 is_stmt 1 view .LVU169
 792 0002 FFF7FEFF 		bl	BSP_SD_ReadCpltCallback
 793              	.LVL70:
 341:FATFS/Target/bsp_driver_sd.c **** 
 794              		.loc 1 341 1 is_stmt 0 view .LVU170
 795 0006 08BD     		pop	{r3, pc}
 796              		.cfi_endproc
 797              	.LFE145:
 799              		.section	.text.BSP_SD_IsDetected,"ax",%progbits
 800              		.align	1
 801              		.weak	BSP_SD_IsDetected
 802              		.syntax unified
 803              		.thumb
ARM GAS  /tmp/cc79Q4NK.s 			page 22


 804              		.thumb_func
 805              		.fpu fpv4-sp-d16
 807              	BSP_SD_IsDetected:
 808              	.LFB149:
 373:FATFS/Target/bsp_driver_sd.c **** /* USER CODE END CallBacksSection_C */
 374:FATFS/Target/bsp_driver_sd.c **** #endif
 375:FATFS/Target/bsp_driver_sd.c **** 
 376:FATFS/Target/bsp_driver_sd.c **** /**
 377:FATFS/Target/bsp_driver_sd.c ****  * @brief  Detects if SD card is correctly plugged in the memory slot or not.
 378:FATFS/Target/bsp_driver_sd.c ****  * @param  None
 379:FATFS/Target/bsp_driver_sd.c ****  * @retval Returns if SD is detected or not
 380:FATFS/Target/bsp_driver_sd.c ****  */
 381:FATFS/Target/bsp_driver_sd.c **** __weak uint8_t BSP_SD_IsDetected(void)
 382:FATFS/Target/bsp_driver_sd.c **** {
 809              		.loc 1 382 1 is_stmt 1 view -0
 810              		.cfi_startproc
 811              		@ args = 0, pretend = 0, frame = 8
 812              		@ frame_needed = 0, uses_anonymous_args = 0
 813 0000 00B5     		push	{lr}
 814              	.LCFI16:
 815              		.cfi_def_cfa_offset 4
 816              		.cfi_offset 14, -4
 817 0002 83B0     		sub	sp, sp, #12
 818              	.LCFI17:
 819              		.cfi_def_cfa_offset 16
 383:FATFS/Target/bsp_driver_sd.c ****   __IO uint8_t status = SD_PRESENT;
 820              		.loc 1 383 3 view .LVU172
 821              		.loc 1 383 16 is_stmt 0 view .LVU173
 822 0004 0123     		movs	r3, #1
 823 0006 8DF80730 		strb	r3, [sp, #7]
 384:FATFS/Target/bsp_driver_sd.c **** 
 385:FATFS/Target/bsp_driver_sd.c ****   if (BSP_PlatformIsDetected() == 0x0)
 824              		.loc 1 385 3 is_stmt 1 view .LVU174
 825              		.loc 1 385 7 is_stmt 0 view .LVU175
 826 000a FFF7FEFF 		bl	BSP_PlatformIsDetected
 827              	.LVL71:
 828              		.loc 1 385 6 view .LVU176
 829 000e 10B9     		cbnz	r0, .L62
 386:FATFS/Target/bsp_driver_sd.c ****   {
 387:FATFS/Target/bsp_driver_sd.c ****     status = SD_NOT_PRESENT;
 830              		.loc 1 387 5 is_stmt 1 view .LVU177
 831              		.loc 1 387 12 is_stmt 0 view .LVU178
 832 0010 0023     		movs	r3, #0
 833 0012 8DF80730 		strb	r3, [sp, #7]
 834              	.L62:
 388:FATFS/Target/bsp_driver_sd.c ****   }
 389:FATFS/Target/bsp_driver_sd.c **** 
 390:FATFS/Target/bsp_driver_sd.c ****   return status;
 835              		.loc 1 390 3 is_stmt 1 view .LVU179
 836              		.loc 1 390 10 is_stmt 0 view .LVU180
 837 0016 9DF80700 		ldrb	r0, [sp, #7]	@ zero_extendqisi2
 391:FATFS/Target/bsp_driver_sd.c **** }
 838              		.loc 1 391 1 view .LVU181
 839 001a 03B0     		add	sp, sp, #12
 840              	.LCFI18:
 841              		.cfi_def_cfa_offset 4
 842              		@ sp needed
ARM GAS  /tmp/cc79Q4NK.s 			page 23


 843 001c 5DF804FB 		ldr	pc, [sp], #4
 844              		.cfi_endproc
 845              	.LFE149:
 847              		.section	.text.BSP_SD_Init,"ax",%progbits
 848              		.align	1
 849              		.weak	BSP_SD_Init
 850              		.syntax unified
 851              		.thumb
 852              		.thumb_func
 853              		.fpu fpv4-sp-d16
 855              	BSP_SD_Init:
 856              	.LFB136:
 183:FATFS/Target/bsp_driver_sd.c ****   uint8_t sd_state = MSD_OK;
 857              		.loc 1 183 1 is_stmt 1 view -0
 858              		.cfi_startproc
 859              		@ args = 0, pretend = 0, frame = 0
 860              		@ frame_needed = 0, uses_anonymous_args = 0
 861 0000 08B5     		push	{r3, lr}
 862              	.LCFI19:
 863              		.cfi_def_cfa_offset 8
 864              		.cfi_offset 3, -8
 865              		.cfi_offset 14, -4
 184:FATFS/Target/bsp_driver_sd.c ****   /* Check if the SD card is plugged in the slot */
 866              		.loc 1 184 3 view .LVU183
 867              	.LVL72:
 186:FATFS/Target/bsp_driver_sd.c ****   {
 868              		.loc 1 186 3 view .LVU184
 186:FATFS/Target/bsp_driver_sd.c ****   {
 869              		.loc 1 186 7 is_stmt 0 view .LVU185
 870 0002 FFF7FEFF 		bl	BSP_SD_IsDetected
 871              	.LVL73:
 186:FATFS/Target/bsp_driver_sd.c ****   {
 872              		.loc 1 186 6 view .LVU186
 873 0006 0128     		cmp	r0, #1
 874 0008 01D0     		beq	.L68
 188:FATFS/Target/bsp_driver_sd.c ****   }
 875              		.loc 1 188 12 view .LVU187
 876 000a 0220     		movs	r0, #2
 877              	.LVL74:
 878              	.L65:
 194:FATFS/Target/bsp_driver_sd.c **** /* USER CODE BEGIN AfterInitSection */
 879              		.loc 1 194 1 view .LVU188
 880 000c 08BD     		pop	{r3, pc}
 881              	.LVL75:
 882              	.L68:
 191:FATFS/Target/bsp_driver_sd.c **** 
 883              		.loc 1 191 3 is_stmt 1 view .LVU189
 191:FATFS/Target/bsp_driver_sd.c **** 
 884              		.loc 1 191 14 is_stmt 0 view .LVU190
 885 000e 0248     		ldr	r0, .L69
 886 0010 FFF7FEFF 		bl	HAL_SD_Init
 887              	.LVL76:
 193:FATFS/Target/bsp_driver_sd.c **** }
 888              		.loc 1 193 3 is_stmt 1 view .LVU191
 193:FATFS/Target/bsp_driver_sd.c **** }
 889              		.loc 1 193 10 is_stmt 0 view .LVU192
 890 0014 FAE7     		b	.L65
ARM GAS  /tmp/cc79Q4NK.s 			page 24


 891              	.L70:
 892 0016 00BF     		.align	2
 893              	.L69:
 894 0018 00000000 		.word	hsd1
 895              		.cfi_endproc
 896              	.LFE136:
 898              		.section	.bss.hdma_rx.9023,"aw",%nobits
 899              		.align	2
 900              		.set	.LANCHOR1,. + 0
 903              	hdma_rx.9023:
 904 0000 00000000 		.space	72
 904      00000000 
 904      00000000 
 904      00000000 
 904      00000000 
 905              		.section	.bss.hdma_tx.9028,"aw",%nobits
 906              		.align	2
 907              		.set	.LANCHOR0,. + 0
 910              	hdma_tx.9028:
 911 0000 00000000 		.space	72
 911      00000000 
 911      00000000 
 911      00000000 
 911      00000000 
 912              		.text
 913              	.Letext0:
 914              		.file 2 "/usr/lib/gcc/arm-none-eabi/9.2.1/include/stdint.h"
 915              		.file 3 "Drivers/CMSIS/Include/core_cm4.h"
 916              		.file 4 "Drivers/CMSIS/Device/ST/STM32L4xx/Include/system_stm32l4xx.h"
 917              		.file 5 "Drivers/CMSIS/Device/ST/STM32L4xx/Include/stm32l433xx.h"
 918              		.file 6 "Drivers/STM32L4xx_HAL_Driver/Inc/stm32l4xx_hal_def.h"
 919              		.file 7 "Drivers/STM32L4xx_HAL_Driver/Inc/stm32l4xx_hal_dma.h"
 920              		.file 8 "Drivers/STM32L4xx_HAL_Driver/Inc/stm32l4xx_hal_flash.h"
 921              		.file 9 "Drivers/STM32L4xx_HAL_Driver/Inc/stm32l4xx_ll_sdmmc.h"
 922              		.file 10 "Drivers/STM32L4xx_HAL_Driver/Inc/stm32l4xx_hal_sd.h"
 923              		.file 11 "Drivers/STM32L4xx_HAL_Driver/Inc/stm32l4xx_hal.h"
 924              		.file 12 "FATFS/Target/fatfs_platform.h"
 925              		.file 13 "Drivers/STM32L4xx_HAL_Driver/Inc/stm32l4xx_hal_cortex.h"
ARM GAS  /tmp/cc79Q4NK.s 			page 25

