ARM GAS  /tmp/cc4ENhcr.s 			page 1


   1              		.cpu cortex-m4
   2              		.eabi_attribute 27, 1
   3              		.eabi_attribute 28, 1
   4              		.eabi_attribute 20, 1
   5              		.eabi_attribute 21, 1
   6              		.eabi_attribute 23, 3
   7              		.eabi_attribute 24, 1
   8              		.eabi_attribute 25, 1
   9              		.eabi_attribute 26, 1
  10              		.eabi_attribute 30, 1
  11              		.eabi_attribute 34, 1
  12              		.eabi_attribute 18, 4
  13              		.file	"stm32l4xx_hal_dac.c"
  14              		.text
  15              	.Ltext0:
  16              		.cfi_sections	.debug_frame
  17              		.section	.text.HAL_DAC_MspInit,"ax",%progbits
  18              		.align	1
  19              		.weak	HAL_DAC_MspInit
  20              		.arch armv7e-m
  21              		.syntax unified
  22              		.thumb
  23              		.thumb_func
  24              		.fpu fpv4-sp-d16
  26              	HAL_DAC_MspInit:
  27              	.LVL0:
  28              	.LFB134:
  29              		.file 1 "Drivers/STM32L4xx_HAL_Driver/Src/stm32l4xx_hal_dac.c"
   1:Drivers/STM32L4xx_HAL_Driver/Src/stm32l4xx_hal_dac.c **** /**
   2:Drivers/STM32L4xx_HAL_Driver/Src/stm32l4xx_hal_dac.c ****   ******************************************************************************
   3:Drivers/STM32L4xx_HAL_Driver/Src/stm32l4xx_hal_dac.c ****   * @file    stm32l4xx_hal_dac.c
   4:Drivers/STM32L4xx_HAL_Driver/Src/stm32l4xx_hal_dac.c ****   * @author  MCD Application Team
   5:Drivers/STM32L4xx_HAL_Driver/Src/stm32l4xx_hal_dac.c ****   * @brief   DAC HAL module driver.
   6:Drivers/STM32L4xx_HAL_Driver/Src/stm32l4xx_hal_dac.c ****   *         This file provides firmware functions to manage the following
   7:Drivers/STM32L4xx_HAL_Driver/Src/stm32l4xx_hal_dac.c ****   *         functionalities of the Digital to Analog Converter (DAC) peripheral:
   8:Drivers/STM32L4xx_HAL_Driver/Src/stm32l4xx_hal_dac.c ****   *           + Initialization and de-initialization functions
   9:Drivers/STM32L4xx_HAL_Driver/Src/stm32l4xx_hal_dac.c ****   *           + Peripheral Control functions
  10:Drivers/STM32L4xx_HAL_Driver/Src/stm32l4xx_hal_dac.c ****   *           + Peripheral State and Errors functions
  11:Drivers/STM32L4xx_HAL_Driver/Src/stm32l4xx_hal_dac.c ****   *
  12:Drivers/STM32L4xx_HAL_Driver/Src/stm32l4xx_hal_dac.c ****   *
  13:Drivers/STM32L4xx_HAL_Driver/Src/stm32l4xx_hal_dac.c ****   ******************************************************************************
  14:Drivers/STM32L4xx_HAL_Driver/Src/stm32l4xx_hal_dac.c ****   * @attention
  15:Drivers/STM32L4xx_HAL_Driver/Src/stm32l4xx_hal_dac.c ****   *
  16:Drivers/STM32L4xx_HAL_Driver/Src/stm32l4xx_hal_dac.c ****   * Copyright (c) 2017 STMicroelectronics.
  17:Drivers/STM32L4xx_HAL_Driver/Src/stm32l4xx_hal_dac.c ****   * All rights reserved.
  18:Drivers/STM32L4xx_HAL_Driver/Src/stm32l4xx_hal_dac.c ****   *
  19:Drivers/STM32L4xx_HAL_Driver/Src/stm32l4xx_hal_dac.c ****   * This software is licensed under terms that can be found in the LICENSE file
  20:Drivers/STM32L4xx_HAL_Driver/Src/stm32l4xx_hal_dac.c ****   * in the root directory of this software component.
  21:Drivers/STM32L4xx_HAL_Driver/Src/stm32l4xx_hal_dac.c ****   * If no LICENSE file comes with this software, it is provided AS-IS.
  22:Drivers/STM32L4xx_HAL_Driver/Src/stm32l4xx_hal_dac.c ****   *
  23:Drivers/STM32L4xx_HAL_Driver/Src/stm32l4xx_hal_dac.c ****   ******************************************************************************
  24:Drivers/STM32L4xx_HAL_Driver/Src/stm32l4xx_hal_dac.c ****   @verbatim
  25:Drivers/STM32L4xx_HAL_Driver/Src/stm32l4xx_hal_dac.c ****   ==============================================================================
  26:Drivers/STM32L4xx_HAL_Driver/Src/stm32l4xx_hal_dac.c ****                       ##### DAC Peripheral features #####
  27:Drivers/STM32L4xx_HAL_Driver/Src/stm32l4xx_hal_dac.c ****   ==============================================================================
  28:Drivers/STM32L4xx_HAL_Driver/Src/stm32l4xx_hal_dac.c ****     [..]
  29:Drivers/STM32L4xx_HAL_Driver/Src/stm32l4xx_hal_dac.c ****       *** DAC Channels ***
ARM GAS  /tmp/cc4ENhcr.s 			page 2


  30:Drivers/STM32L4xx_HAL_Driver/Src/stm32l4xx_hal_dac.c ****       ====================
  31:Drivers/STM32L4xx_HAL_Driver/Src/stm32l4xx_hal_dac.c ****     [..]
  32:Drivers/STM32L4xx_HAL_Driver/Src/stm32l4xx_hal_dac.c ****     STM32L4 devices integrate one or two 12-bit Digital Analog Converters
  33:Drivers/STM32L4xx_HAL_Driver/Src/stm32l4xx_hal_dac.c ****     (i.e. one or 2 channel(s))
  34:Drivers/STM32L4xx_HAL_Driver/Src/stm32l4xx_hal_dac.c ****     1 channel : STM32L451xx STM32L452xx STM32L462xx
  35:Drivers/STM32L4xx_HAL_Driver/Src/stm32l4xx_hal_dac.c ****     2 channels: STM32L431xx STM32L432xx STM32L433xx STM32L442xx STM32L443xx
  36:Drivers/STM32L4xx_HAL_Driver/Src/stm32l4xx_hal_dac.c ****                 STM32L471xx STM32L475xx STM32L476xx STM32L485xx STM32L486xx STM32L496xx STM32L4A6xx
  37:Drivers/STM32L4xx_HAL_Driver/Src/stm32l4xx_hal_dac.c ****                 STM32L4P5xx STM32L4Q5xx
  38:Drivers/STM32L4xx_HAL_Driver/Src/stm32l4xx_hal_dac.c ****                 STM32L4R5xx STM32L4R7xx STM32L4R9xx STM32L4S5xx STM32L4S7xx STM32L4S9xx
  39:Drivers/STM32L4xx_HAL_Driver/Src/stm32l4xx_hal_dac.c **** 
  40:Drivers/STM32L4xx_HAL_Driver/Src/stm32l4xx_hal_dac.c ****     When 2 channels are available, the 2 converters (i.e. channel1 & channel2)
  41:Drivers/STM32L4xx_HAL_Driver/Src/stm32l4xx_hal_dac.c ****     can be used independently or simultaneously (dual mode):
  42:Drivers/STM32L4xx_HAL_Driver/Src/stm32l4xx_hal_dac.c ****       (#) DAC channel1 with DAC_OUT1 (PA4) as output or connected to on-chip
  43:Drivers/STM32L4xx_HAL_Driver/Src/stm32l4xx_hal_dac.c ****           peripherals.
  44:Drivers/STM32L4xx_HAL_Driver/Src/stm32l4xx_hal_dac.c ****       (#) Whenever present, DAC channel2 with DAC_OUT2 (PA5) as output
  45:Drivers/STM32L4xx_HAL_Driver/Src/stm32l4xx_hal_dac.c ****           or connected to on-chip peripherals.
  46:Drivers/STM32L4xx_HAL_Driver/Src/stm32l4xx_hal_dac.c **** 
  47:Drivers/STM32L4xx_HAL_Driver/Src/stm32l4xx_hal_dac.c ****       *** DAC Triggers ***
  48:Drivers/STM32L4xx_HAL_Driver/Src/stm32l4xx_hal_dac.c ****       ====================
  49:Drivers/STM32L4xx_HAL_Driver/Src/stm32l4xx_hal_dac.c ****     [..]
  50:Drivers/STM32L4xx_HAL_Driver/Src/stm32l4xx_hal_dac.c ****     Digital to Analog conversion can be non-triggered using DAC_TRIGGER_NONE
  51:Drivers/STM32L4xx_HAL_Driver/Src/stm32l4xx_hal_dac.c ****     and DAC_OUT1/DAC_OUT2 is available once writing to DHRx register.
  52:Drivers/STM32L4xx_HAL_Driver/Src/stm32l4xx_hal_dac.c ****     [..]
  53:Drivers/STM32L4xx_HAL_Driver/Src/stm32l4xx_hal_dac.c ****     Digital to Analog conversion can be triggered by:
  54:Drivers/STM32L4xx_HAL_Driver/Src/stm32l4xx_hal_dac.c ****       (#) External event: EXTI Line 9 (any GPIOx_PIN_9) using DAC_TRIGGER_EXT_IT9.
  55:Drivers/STM32L4xx_HAL_Driver/Src/stm32l4xx_hal_dac.c ****           The used pin (GPIOx_PIN_9) must be configured in input mode.
  56:Drivers/STM32L4xx_HAL_Driver/Src/stm32l4xx_hal_dac.c **** 
  57:Drivers/STM32L4xx_HAL_Driver/Src/stm32l4xx_hal_dac.c ****       (#) Timers TRGO: TIM2, TIM3, TIM4, TIM5, TIM6 and TIM7
  58:Drivers/STM32L4xx_HAL_Driver/Src/stm32l4xx_hal_dac.c ****           (DAC_TRIGGER_T2_TRGO, DAC_TRIGGER_T3_TRGO...)
  59:Drivers/STM32L4xx_HAL_Driver/Src/stm32l4xx_hal_dac.c **** 
  60:Drivers/STM32L4xx_HAL_Driver/Src/stm32l4xx_hal_dac.c ****       (#) Software using DAC_TRIGGER_SOFTWARE
  61:Drivers/STM32L4xx_HAL_Driver/Src/stm32l4xx_hal_dac.c **** 
  62:Drivers/STM32L4xx_HAL_Driver/Src/stm32l4xx_hal_dac.c ****       *** DAC Buffer mode feature ***
  63:Drivers/STM32L4xx_HAL_Driver/Src/stm32l4xx_hal_dac.c ****       ===============================
  64:Drivers/STM32L4xx_HAL_Driver/Src/stm32l4xx_hal_dac.c ****       [..]
  65:Drivers/STM32L4xx_HAL_Driver/Src/stm32l4xx_hal_dac.c ****       Each DAC channel integrates an output buffer that can be used to
  66:Drivers/STM32L4xx_HAL_Driver/Src/stm32l4xx_hal_dac.c ****       reduce the output impedance, and to drive external loads directly
  67:Drivers/STM32L4xx_HAL_Driver/Src/stm32l4xx_hal_dac.c ****       without having to add an external operational amplifier.
  68:Drivers/STM32L4xx_HAL_Driver/Src/stm32l4xx_hal_dac.c ****       To enable, the output buffer use
  69:Drivers/STM32L4xx_HAL_Driver/Src/stm32l4xx_hal_dac.c ****       sConfig.DAC_OutputBuffer = DAC_OUTPUTBUFFER_ENABLE;
  70:Drivers/STM32L4xx_HAL_Driver/Src/stm32l4xx_hal_dac.c ****       [..]
  71:Drivers/STM32L4xx_HAL_Driver/Src/stm32l4xx_hal_dac.c ****       (@) Refer to the device datasheet for more details about output
  72:Drivers/STM32L4xx_HAL_Driver/Src/stm32l4xx_hal_dac.c ****           impedance value with and without output buffer.
  73:Drivers/STM32L4xx_HAL_Driver/Src/stm32l4xx_hal_dac.c **** 
  74:Drivers/STM32L4xx_HAL_Driver/Src/stm32l4xx_hal_dac.c ****       *** DAC connect feature ***
  75:Drivers/STM32L4xx_HAL_Driver/Src/stm32l4xx_hal_dac.c ****       ===============================
  76:Drivers/STM32L4xx_HAL_Driver/Src/stm32l4xx_hal_dac.c ****       [..]
  77:Drivers/STM32L4xx_HAL_Driver/Src/stm32l4xx_hal_dac.c ****       Each DAC channel can be connected internally.
  78:Drivers/STM32L4xx_HAL_Driver/Src/stm32l4xx_hal_dac.c ****       To connect, use
  79:Drivers/STM32L4xx_HAL_Driver/Src/stm32l4xx_hal_dac.c ****       sConfig.DAC_ConnectOnChipPeripheral = DAC_CHIPCONNECT_ENABLE;
  80:Drivers/STM32L4xx_HAL_Driver/Src/stm32l4xx_hal_dac.c **** 
  81:Drivers/STM32L4xx_HAL_Driver/Src/stm32l4xx_hal_dac.c ****       *** GPIO configurations guidelines ***
  82:Drivers/STM32L4xx_HAL_Driver/Src/stm32l4xx_hal_dac.c ****       =====================
  83:Drivers/STM32L4xx_HAL_Driver/Src/stm32l4xx_hal_dac.c ****       [..]
  84:Drivers/STM32L4xx_HAL_Driver/Src/stm32l4xx_hal_dac.c ****       When a DAC channel is used (ex channel1 on PA4) and the other is not
  85:Drivers/STM32L4xx_HAL_Driver/Src/stm32l4xx_hal_dac.c ****       (ex channel2 on PA5 is configured in Analog and disabled).
  86:Drivers/STM32L4xx_HAL_Driver/Src/stm32l4xx_hal_dac.c ****       Channel1 may disturb channel2 as coupling effect.
ARM GAS  /tmp/cc4ENhcr.s 			page 3


  87:Drivers/STM32L4xx_HAL_Driver/Src/stm32l4xx_hal_dac.c ****       Note that there is no coupling on channel2 as soon as channel2 is turned on.
  88:Drivers/STM32L4xx_HAL_Driver/Src/stm32l4xx_hal_dac.c ****       Coupling on adjacent channel could be avoided as follows:
  89:Drivers/STM32L4xx_HAL_Driver/Src/stm32l4xx_hal_dac.c ****       when unused PA5 is configured as INPUT PULL-UP or DOWN.
  90:Drivers/STM32L4xx_HAL_Driver/Src/stm32l4xx_hal_dac.c ****       PA5 is configured in ANALOG just before it is turned on.
  91:Drivers/STM32L4xx_HAL_Driver/Src/stm32l4xx_hal_dac.c **** 
  92:Drivers/STM32L4xx_HAL_Driver/Src/stm32l4xx_hal_dac.c ****       *** DAC Sample and Hold feature ***
  93:Drivers/STM32L4xx_HAL_Driver/Src/stm32l4xx_hal_dac.c ****       ========================
  94:Drivers/STM32L4xx_HAL_Driver/Src/stm32l4xx_hal_dac.c ****       [..]
  95:Drivers/STM32L4xx_HAL_Driver/Src/stm32l4xx_hal_dac.c ****       For each converter, 2 modes are supported: normal mode and
  96:Drivers/STM32L4xx_HAL_Driver/Src/stm32l4xx_hal_dac.c ****       "sample and hold" mode (i.e. low power mode).
  97:Drivers/STM32L4xx_HAL_Driver/Src/stm32l4xx_hal_dac.c ****       In the sample and hold mode, the DAC core converts data, then holds the
  98:Drivers/STM32L4xx_HAL_Driver/Src/stm32l4xx_hal_dac.c ****       converted voltage on a capacitor. When not converting, the DAC cores and
  99:Drivers/STM32L4xx_HAL_Driver/Src/stm32l4xx_hal_dac.c ****       buffer are completely turned off between samples and the DAC output is
 100:Drivers/STM32L4xx_HAL_Driver/Src/stm32l4xx_hal_dac.c ****       tri-stated, therefore  reducing the overall power consumption. A new
 101:Drivers/STM32L4xx_HAL_Driver/Src/stm32l4xx_hal_dac.c ****       stabilization period is needed before each new conversion.
 102:Drivers/STM32L4xx_HAL_Driver/Src/stm32l4xx_hal_dac.c **** 
 103:Drivers/STM32L4xx_HAL_Driver/Src/stm32l4xx_hal_dac.c ****       The sample and hold allow setting internal or external voltage @
 104:Drivers/STM32L4xx_HAL_Driver/Src/stm32l4xx_hal_dac.c ****       low power consumption cost (output value can be at any given rate either
 105:Drivers/STM32L4xx_HAL_Driver/Src/stm32l4xx_hal_dac.c ****       by CPU or DMA).
 106:Drivers/STM32L4xx_HAL_Driver/Src/stm32l4xx_hal_dac.c **** 
 107:Drivers/STM32L4xx_HAL_Driver/Src/stm32l4xx_hal_dac.c ****       The Sample and hold block and registers uses either LSI & run in
 108:Drivers/STM32L4xx_HAL_Driver/Src/stm32l4xx_hal_dac.c ****       several power modes: run mode, sleep mode, low power run, low power sleep
 109:Drivers/STM32L4xx_HAL_Driver/Src/stm32l4xx_hal_dac.c ****       mode & stop1 mode.
 110:Drivers/STM32L4xx_HAL_Driver/Src/stm32l4xx_hal_dac.c **** 
 111:Drivers/STM32L4xx_HAL_Driver/Src/stm32l4xx_hal_dac.c ****       Low power stop1 mode allows only static conversion.
 112:Drivers/STM32L4xx_HAL_Driver/Src/stm32l4xx_hal_dac.c **** 
 113:Drivers/STM32L4xx_HAL_Driver/Src/stm32l4xx_hal_dac.c ****       To enable Sample and Hold mode
 114:Drivers/STM32L4xx_HAL_Driver/Src/stm32l4xx_hal_dac.c ****       Enable LSI using HAL_RCC_OscConfig with RCC_OSCILLATORTYPE_LSI &
 115:Drivers/STM32L4xx_HAL_Driver/Src/stm32l4xx_hal_dac.c ****       RCC_LSI_ON parameters.
 116:Drivers/STM32L4xx_HAL_Driver/Src/stm32l4xx_hal_dac.c **** 
 117:Drivers/STM32L4xx_HAL_Driver/Src/stm32l4xx_hal_dac.c ****       Use DAC_InitStructure.DAC_SampleAndHold = DAC_SAMPLEANDHOLD_ENABLE;
 118:Drivers/STM32L4xx_HAL_Driver/Src/stm32l4xx_hal_dac.c ****          & DAC_ChannelConfTypeDef.DAC_SampleAndHoldConfig.DAC_SampleTime,
 119:Drivers/STM32L4xx_HAL_Driver/Src/stm32l4xx_hal_dac.c ****            DAC_HoldTime & DAC_RefreshTime;
 120:Drivers/STM32L4xx_HAL_Driver/Src/stm32l4xx_hal_dac.c **** 
 121:Drivers/STM32L4xx_HAL_Driver/Src/stm32l4xx_hal_dac.c ****        *** DAC calibration feature ***
 122:Drivers/STM32L4xx_HAL_Driver/Src/stm32l4xx_hal_dac.c ****        ===================================
 123:Drivers/STM32L4xx_HAL_Driver/Src/stm32l4xx_hal_dac.c ****       [..]
 124:Drivers/STM32L4xx_HAL_Driver/Src/stm32l4xx_hal_dac.c ****        (#)  The 2 converters (channel1 & channel2) provide calibration capabilities.
 125:Drivers/STM32L4xx_HAL_Driver/Src/stm32l4xx_hal_dac.c ****        (++) Calibration aims at correcting some offset of output buffer.
 126:Drivers/STM32L4xx_HAL_Driver/Src/stm32l4xx_hal_dac.c ****        (++) The DAC uses either factory calibration settings OR user defined
 127:Drivers/STM32L4xx_HAL_Driver/Src/stm32l4xx_hal_dac.c ****            calibration (trimming) settings (i.e. trimming mode).
 128:Drivers/STM32L4xx_HAL_Driver/Src/stm32l4xx_hal_dac.c ****        (++) The user defined settings can be figured out using self calibration
 129:Drivers/STM32L4xx_HAL_Driver/Src/stm32l4xx_hal_dac.c ****            handled by HAL_DACEx_SelfCalibrate.
 130:Drivers/STM32L4xx_HAL_Driver/Src/stm32l4xx_hal_dac.c ****        (++) HAL_DACEx_SelfCalibrate:
 131:Drivers/STM32L4xx_HAL_Driver/Src/stm32l4xx_hal_dac.c ****        (+++) Runs automatically the calibration.
 132:Drivers/STM32L4xx_HAL_Driver/Src/stm32l4xx_hal_dac.c ****        (+++) Enables the user trimming mode
 133:Drivers/STM32L4xx_HAL_Driver/Src/stm32l4xx_hal_dac.c ****        (+++) Updates a structure with trimming values with fresh calibration
 134:Drivers/STM32L4xx_HAL_Driver/Src/stm32l4xx_hal_dac.c ****             results.
 135:Drivers/STM32L4xx_HAL_Driver/Src/stm32l4xx_hal_dac.c ****             The user may store the calibration results for larger
 136:Drivers/STM32L4xx_HAL_Driver/Src/stm32l4xx_hal_dac.c ****             (ex monitoring the trimming as a function of temperature
 137:Drivers/STM32L4xx_HAL_Driver/Src/stm32l4xx_hal_dac.c ****             for instance)
 138:Drivers/STM32L4xx_HAL_Driver/Src/stm32l4xx_hal_dac.c **** 
 139:Drivers/STM32L4xx_HAL_Driver/Src/stm32l4xx_hal_dac.c ****        *** DAC wave generation feature ***
 140:Drivers/STM32L4xx_HAL_Driver/Src/stm32l4xx_hal_dac.c ****        ===================================
 141:Drivers/STM32L4xx_HAL_Driver/Src/stm32l4xx_hal_dac.c ****        [..]
 142:Drivers/STM32L4xx_HAL_Driver/Src/stm32l4xx_hal_dac.c ****        Both DAC channels can be used to generate
 143:Drivers/STM32L4xx_HAL_Driver/Src/stm32l4xx_hal_dac.c ****          (#) Noise wave
ARM GAS  /tmp/cc4ENhcr.s 			page 4


 144:Drivers/STM32L4xx_HAL_Driver/Src/stm32l4xx_hal_dac.c ****          (#) Triangle wave
 145:Drivers/STM32L4xx_HAL_Driver/Src/stm32l4xx_hal_dac.c **** 
 146:Drivers/STM32L4xx_HAL_Driver/Src/stm32l4xx_hal_dac.c ****        *** DAC data format ***
 147:Drivers/STM32L4xx_HAL_Driver/Src/stm32l4xx_hal_dac.c ****        =======================
 148:Drivers/STM32L4xx_HAL_Driver/Src/stm32l4xx_hal_dac.c ****        [..]
 149:Drivers/STM32L4xx_HAL_Driver/Src/stm32l4xx_hal_dac.c ****        The DAC data format can be:
 150:Drivers/STM32L4xx_HAL_Driver/Src/stm32l4xx_hal_dac.c ****          (#) 8-bit right alignment using DAC_ALIGN_8B_R
 151:Drivers/STM32L4xx_HAL_Driver/Src/stm32l4xx_hal_dac.c ****          (#) 12-bit left alignment using DAC_ALIGN_12B_L
 152:Drivers/STM32L4xx_HAL_Driver/Src/stm32l4xx_hal_dac.c ****          (#) 12-bit right alignment using DAC_ALIGN_12B_R
 153:Drivers/STM32L4xx_HAL_Driver/Src/stm32l4xx_hal_dac.c **** 
 154:Drivers/STM32L4xx_HAL_Driver/Src/stm32l4xx_hal_dac.c ****        *** DAC data value to voltage correspondence ***
 155:Drivers/STM32L4xx_HAL_Driver/Src/stm32l4xx_hal_dac.c ****        ================================================
 156:Drivers/STM32L4xx_HAL_Driver/Src/stm32l4xx_hal_dac.c ****        [..]
 157:Drivers/STM32L4xx_HAL_Driver/Src/stm32l4xx_hal_dac.c ****        The analog output voltage on each DAC channel pin is determined
 158:Drivers/STM32L4xx_HAL_Driver/Src/stm32l4xx_hal_dac.c ****        by the following equation:
 159:Drivers/STM32L4xx_HAL_Driver/Src/stm32l4xx_hal_dac.c ****        [..]
 160:Drivers/STM32L4xx_HAL_Driver/Src/stm32l4xx_hal_dac.c ****        DAC_OUTx = VREF+ * DOR / 4095
 161:Drivers/STM32L4xx_HAL_Driver/Src/stm32l4xx_hal_dac.c ****        (+) with  DOR is the Data Output Register
 162:Drivers/STM32L4xx_HAL_Driver/Src/stm32l4xx_hal_dac.c ****        [..]
 163:Drivers/STM32L4xx_HAL_Driver/Src/stm32l4xx_hal_dac.c ****           VEF+ is the input voltage reference (refer to the device datasheet)
 164:Drivers/STM32L4xx_HAL_Driver/Src/stm32l4xx_hal_dac.c ****        [..]
 165:Drivers/STM32L4xx_HAL_Driver/Src/stm32l4xx_hal_dac.c ****         e.g. To set DAC_OUT1 to 0.7V, use
 166:Drivers/STM32L4xx_HAL_Driver/Src/stm32l4xx_hal_dac.c ****        (+) Assuming that VREF+ = 3.3V, DAC_OUT1 = (3.3 * 868) / 4095 = 0.7V
 167:Drivers/STM32L4xx_HAL_Driver/Src/stm32l4xx_hal_dac.c **** 
 168:Drivers/STM32L4xx_HAL_Driver/Src/stm32l4xx_hal_dac.c ****        *** DMA requests ***
 169:Drivers/STM32L4xx_HAL_Driver/Src/stm32l4xx_hal_dac.c ****        =====================
 170:Drivers/STM32L4xx_HAL_Driver/Src/stm32l4xx_hal_dac.c ****        [..]
 171:Drivers/STM32L4xx_HAL_Driver/Src/stm32l4xx_hal_dac.c ****        A DMA1 request can be generated when an external trigger (but not a software trigger)
 172:Drivers/STM32L4xx_HAL_Driver/Src/stm32l4xx_hal_dac.c ****        occurs if DMA1 requests are enabled using HAL_DAC_Start_DMA().
 173:Drivers/STM32L4xx_HAL_Driver/Src/stm32l4xx_hal_dac.c ****        DMA requests are mapped as following:
 174:Drivers/STM32L4xx_HAL_Driver/Src/stm32l4xx_hal_dac.c ****        (#) When DMAMUX is NOT present: 
 175:Drivers/STM32L4xx_HAL_Driver/Src/stm32l4xx_hal_dac.c ****            DMA1 requests are mapped as following:
 176:Drivers/STM32L4xx_HAL_Driver/Src/stm32l4xx_hal_dac.c ****              (+) DAC channel1 mapped on DMA1 request 6 / channel3
 177:Drivers/STM32L4xx_HAL_Driver/Src/stm32l4xx_hal_dac.c ****              (+) DAC channel2 mapped on DMA1 request 5 / channel4
 178:Drivers/STM32L4xx_HAL_Driver/Src/stm32l4xx_hal_dac.c ****            DMA2 requests are mapped as following:
 179:Drivers/STM32L4xx_HAL_Driver/Src/stm32l4xx_hal_dac.c ****              (+) DAC channel1 mapped on DMA2 request 3 / channel4
 180:Drivers/STM32L4xx_HAL_Driver/Src/stm32l4xx_hal_dac.c ****              (+) DAC channel2 mapped on DMA2 request 3 / channel5
 181:Drivers/STM32L4xx_HAL_Driver/Src/stm32l4xx_hal_dac.c ****        (#) When DMAMUX is present: 
 182:Drivers/STM32L4xx_HAL_Driver/Src/stm32l4xx_hal_dac.c ****              (+) DAC channel1 mapped on DMA1/DMA2 request 6 (can be any DMA channel)
 183:Drivers/STM32L4xx_HAL_Driver/Src/stm32l4xx_hal_dac.c ****              (+) DAC channel2 mapped on DMA1/DMA2 request 7 (can be any DMA channel)
 184:Drivers/STM32L4xx_HAL_Driver/Src/stm32l4xx_hal_dac.c **** 
 185:Drivers/STM32L4xx_HAL_Driver/Src/stm32l4xx_hal_dac.c ****        *** High frequency interface mode ***
 186:Drivers/STM32L4xx_HAL_Driver/Src/stm32l4xx_hal_dac.c ****        =====================================
 187:Drivers/STM32L4xx_HAL_Driver/Src/stm32l4xx_hal_dac.c ****        [..]
 188:Drivers/STM32L4xx_HAL_Driver/Src/stm32l4xx_hal_dac.c ****        The high frequency interface informs DAC instance about the bus frequency in use.
 189:Drivers/STM32L4xx_HAL_Driver/Src/stm32l4xx_hal_dac.c ****        It is mandatory information for DAC (as internal timing of DAC is bus frequency dependent)
 190:Drivers/STM32L4xx_HAL_Driver/Src/stm32l4xx_hal_dac.c ****        provided thanks to parameter DAC_HighFrequency handled in HAL_DAC_ConfigChannel () function.
 191:Drivers/STM32L4xx_HAL_Driver/Src/stm32l4xx_hal_dac.c ****        Use of DAC_HIGH_FREQUENCY_INTERFACE_MODE_AUTOMATIC value of DAC_HighFrequency is recommended
 192:Drivers/STM32L4xx_HAL_Driver/Src/stm32l4xx_hal_dac.c ****        function figured out the correct setting.
 193:Drivers/STM32L4xx_HAL_Driver/Src/stm32l4xx_hal_dac.c ****        The high frequency mode is same for all converters of a same DAC instance. Either same
 194:Drivers/STM32L4xx_HAL_Driver/Src/stm32l4xx_hal_dac.c ****        parameter DAC_HighFrequency is used for all DAC converters or again self
 195:Drivers/STM32L4xx_HAL_Driver/Src/stm32l4xx_hal_dac.c ****        DAC_HIGH_FREQUENCY_INTERFACE_MODE_AUTOMATIC detection parameter.
 196:Drivers/STM32L4xx_HAL_Driver/Src/stm32l4xx_hal_dac.c **** 
 197:Drivers/STM32L4xx_HAL_Driver/Src/stm32l4xx_hal_dac.c ****      [..]
 198:Drivers/STM32L4xx_HAL_Driver/Src/stm32l4xx_hal_dac.c ****     (@) For Dual mode and specific signal (Triangle and noise) generation please
 199:Drivers/STM32L4xx_HAL_Driver/Src/stm32l4xx_hal_dac.c ****         refer to Extended Features Driver description
 200:Drivers/STM32L4xx_HAL_Driver/Src/stm32l4xx_hal_dac.c **** 
ARM GAS  /tmp/cc4ENhcr.s 			page 5


 201:Drivers/STM32L4xx_HAL_Driver/Src/stm32l4xx_hal_dac.c ****                       ##### How to use this driver #####
 202:Drivers/STM32L4xx_HAL_Driver/Src/stm32l4xx_hal_dac.c ****   ==============================================================================
 203:Drivers/STM32L4xx_HAL_Driver/Src/stm32l4xx_hal_dac.c ****     [..]
 204:Drivers/STM32L4xx_HAL_Driver/Src/stm32l4xx_hal_dac.c ****       (+) DAC APB clock must be enabled to get write access to DAC
 205:Drivers/STM32L4xx_HAL_Driver/Src/stm32l4xx_hal_dac.c ****           registers using HAL_DAC_Init()
 206:Drivers/STM32L4xx_HAL_Driver/Src/stm32l4xx_hal_dac.c ****       (+) Configure DAC_OUTx (DAC_OUT1: PA4, DAC_OUT2: PA5) in analog mode.
 207:Drivers/STM32L4xx_HAL_Driver/Src/stm32l4xx_hal_dac.c ****       (+) Configure the DAC channel using HAL_DAC_ConfigChannel() function.
 208:Drivers/STM32L4xx_HAL_Driver/Src/stm32l4xx_hal_dac.c ****       (+) Enable the DAC channel using HAL_DAC_Start() or HAL_DAC_Start_DMA() functions.
 209:Drivers/STM32L4xx_HAL_Driver/Src/stm32l4xx_hal_dac.c **** 
 210:Drivers/STM32L4xx_HAL_Driver/Src/stm32l4xx_hal_dac.c ****      *** Calibration mode IO operation ***
 211:Drivers/STM32L4xx_HAL_Driver/Src/stm32l4xx_hal_dac.c ****      ======================================
 212:Drivers/STM32L4xx_HAL_Driver/Src/stm32l4xx_hal_dac.c ****      [..]
 213:Drivers/STM32L4xx_HAL_Driver/Src/stm32l4xx_hal_dac.c ****        (+) Retrieve the factory trimming (calibration settings) using HAL_DACEx_GetTrimOffset()
 214:Drivers/STM32L4xx_HAL_Driver/Src/stm32l4xx_hal_dac.c ****        (+) Run the calibration using HAL_DACEx_SelfCalibrate()
 215:Drivers/STM32L4xx_HAL_Driver/Src/stm32l4xx_hal_dac.c ****        (+) Update the trimming while DAC running using HAL_DACEx_SetUserTrimming()
 216:Drivers/STM32L4xx_HAL_Driver/Src/stm32l4xx_hal_dac.c **** 
 217:Drivers/STM32L4xx_HAL_Driver/Src/stm32l4xx_hal_dac.c ****      *** Polling mode IO operation ***
 218:Drivers/STM32L4xx_HAL_Driver/Src/stm32l4xx_hal_dac.c ****      =================================
 219:Drivers/STM32L4xx_HAL_Driver/Src/stm32l4xx_hal_dac.c ****      [..]
 220:Drivers/STM32L4xx_HAL_Driver/Src/stm32l4xx_hal_dac.c ****        (+) Start the DAC peripheral using HAL_DAC_Start()
 221:Drivers/STM32L4xx_HAL_Driver/Src/stm32l4xx_hal_dac.c ****        (+) To read the DAC last data output value, use the HAL_DAC_GetValue() function.
 222:Drivers/STM32L4xx_HAL_Driver/Src/stm32l4xx_hal_dac.c ****        (+) Stop the DAC peripheral using HAL_DAC_Stop()
 223:Drivers/STM32L4xx_HAL_Driver/Src/stm32l4xx_hal_dac.c **** 
 224:Drivers/STM32L4xx_HAL_Driver/Src/stm32l4xx_hal_dac.c ****      *** DMA mode IO operation ***
 225:Drivers/STM32L4xx_HAL_Driver/Src/stm32l4xx_hal_dac.c ****      ==============================
 226:Drivers/STM32L4xx_HAL_Driver/Src/stm32l4xx_hal_dac.c ****      [..]
 227:Drivers/STM32L4xx_HAL_Driver/Src/stm32l4xx_hal_dac.c ****        (+) Start the DAC peripheral using HAL_DAC_Start_DMA(), at this stage the user specify the l
 228:Drivers/STM32L4xx_HAL_Driver/Src/stm32l4xx_hal_dac.c ****            of data to be transferred at each end of conversion
 229:Drivers/STM32L4xx_HAL_Driver/Src/stm32l4xx_hal_dac.c ****            First issued trigger will start the conversion of the value previously set by HAL_DAC_Se
 230:Drivers/STM32L4xx_HAL_Driver/Src/stm32l4xx_hal_dac.c ****        (+) At the middle of data transfer HAL_DAC_ConvHalfCpltCallbackCh1() or HAL_DACEx_ConvHalfCp
 231:Drivers/STM32L4xx_HAL_Driver/Src/stm32l4xx_hal_dac.c ****            function is executed and user can add his own code by customization of function pointer
 232:Drivers/STM32L4xx_HAL_Driver/Src/stm32l4xx_hal_dac.c ****            HAL_DAC_ConvHalfCpltCallbackCh1() or HAL_DACEx_ConvHalfCpltCallbackCh2()
 233:Drivers/STM32L4xx_HAL_Driver/Src/stm32l4xx_hal_dac.c ****        (+) At The end of data transfer HAL_DAC_ConvCpltCallbackCh1() or HAL_DACEx_ConvHalfCpltCallb
 234:Drivers/STM32L4xx_HAL_Driver/Src/stm32l4xx_hal_dac.c ****            function is executed and user can add his own code by customization of function pointer
 235:Drivers/STM32L4xx_HAL_Driver/Src/stm32l4xx_hal_dac.c ****            HAL_DAC_ConvCpltCallbackCh1() or HAL_DACEx_ConvHalfCpltCallbackCh2()
 236:Drivers/STM32L4xx_HAL_Driver/Src/stm32l4xx_hal_dac.c ****        (+) In case of transfer Error, HAL_DAC_ErrorCallbackCh1() function is executed and user can
 237:Drivers/STM32L4xx_HAL_Driver/Src/stm32l4xx_hal_dac.c ****             add his own code by customization of function pointer HAL_DAC_ErrorCallbackCh1
 238:Drivers/STM32L4xx_HAL_Driver/Src/stm32l4xx_hal_dac.c ****        (+) In case of DMA underrun, DAC interruption triggers and execute internal function HAL_DAC
 239:Drivers/STM32L4xx_HAL_Driver/Src/stm32l4xx_hal_dac.c ****            HAL_DAC_DMAUnderrunCallbackCh1() or HAL_DACEx_DMAUnderrunCallbackCh2()
 240:Drivers/STM32L4xx_HAL_Driver/Src/stm32l4xx_hal_dac.c ****            function is executed and user can add his own code by customization of function pointer
 241:Drivers/STM32L4xx_HAL_Driver/Src/stm32l4xx_hal_dac.c ****            HAL_DAC_DMAUnderrunCallbackCh1() or HAL_DACEx_DMAUnderrunCallbackCh2() and
 242:Drivers/STM32L4xx_HAL_Driver/Src/stm32l4xx_hal_dac.c ****            add his own code by customization of function pointer HAL_DAC_ErrorCallbackCh1()
 243:Drivers/STM32L4xx_HAL_Driver/Src/stm32l4xx_hal_dac.c ****        (+) Stop the DAC peripheral using HAL_DAC_Stop_DMA()
 244:Drivers/STM32L4xx_HAL_Driver/Src/stm32l4xx_hal_dac.c **** 
 245:Drivers/STM32L4xx_HAL_Driver/Src/stm32l4xx_hal_dac.c ****     *** Callback registration ***
 246:Drivers/STM32L4xx_HAL_Driver/Src/stm32l4xx_hal_dac.c ****     =============================================
 247:Drivers/STM32L4xx_HAL_Driver/Src/stm32l4xx_hal_dac.c ****     [..]
 248:Drivers/STM32L4xx_HAL_Driver/Src/stm32l4xx_hal_dac.c ****       The compilation define  USE_HAL_DAC_REGISTER_CALLBACKS when set to 1
 249:Drivers/STM32L4xx_HAL_Driver/Src/stm32l4xx_hal_dac.c ****       allows the user to configure dynamically the driver callbacks.
 250:Drivers/STM32L4xx_HAL_Driver/Src/stm32l4xx_hal_dac.c **** 
 251:Drivers/STM32L4xx_HAL_Driver/Src/stm32l4xx_hal_dac.c ****     Use Functions HAL_DAC_RegisterCallback() to register a user callback,
 252:Drivers/STM32L4xx_HAL_Driver/Src/stm32l4xx_hal_dac.c ****       it allows to register following callbacks:
 253:Drivers/STM32L4xx_HAL_Driver/Src/stm32l4xx_hal_dac.c ****       (+) ConvCpltCallbackCh1     : callback when a half transfer is completed on Ch1.
 254:Drivers/STM32L4xx_HAL_Driver/Src/stm32l4xx_hal_dac.c ****       (+) ConvHalfCpltCallbackCh1 : callback when a transfer is completed on Ch1.
 255:Drivers/STM32L4xx_HAL_Driver/Src/stm32l4xx_hal_dac.c ****       (+) ErrorCallbackCh1        : callback when an error occurs on Ch1.
 256:Drivers/STM32L4xx_HAL_Driver/Src/stm32l4xx_hal_dac.c ****       (+) DMAUnderrunCallbackCh1  : callback when an underrun error occurs on Ch1.
 257:Drivers/STM32L4xx_HAL_Driver/Src/stm32l4xx_hal_dac.c ****       (+) ConvCpltCallbackCh2     : callback when a half transfer is completed on Ch2.
ARM GAS  /tmp/cc4ENhcr.s 			page 6


 258:Drivers/STM32L4xx_HAL_Driver/Src/stm32l4xx_hal_dac.c ****       (+) ConvHalfCpltCallbackCh2 : callback when a transfer is completed on Ch2.
 259:Drivers/STM32L4xx_HAL_Driver/Src/stm32l4xx_hal_dac.c ****       (+) ErrorCallbackCh2        : callback when an error occurs on Ch2.
 260:Drivers/STM32L4xx_HAL_Driver/Src/stm32l4xx_hal_dac.c ****       (+) DMAUnderrunCallbackCh2  : callback when an underrun error occurs on Ch2.
 261:Drivers/STM32L4xx_HAL_Driver/Src/stm32l4xx_hal_dac.c ****       (+) MspInitCallback         : DAC MspInit.
 262:Drivers/STM32L4xx_HAL_Driver/Src/stm32l4xx_hal_dac.c ****       (+) MspDeInitCallback       : DAC MspdeInit.
 263:Drivers/STM32L4xx_HAL_Driver/Src/stm32l4xx_hal_dac.c ****       This function takes as parameters the HAL peripheral handle, the Callback ID
 264:Drivers/STM32L4xx_HAL_Driver/Src/stm32l4xx_hal_dac.c ****       and a pointer to the user callback function.
 265:Drivers/STM32L4xx_HAL_Driver/Src/stm32l4xx_hal_dac.c **** 
 266:Drivers/STM32L4xx_HAL_Driver/Src/stm32l4xx_hal_dac.c ****     Use function HAL_DAC_UnRegisterCallback() to reset a callback to the default
 267:Drivers/STM32L4xx_HAL_Driver/Src/stm32l4xx_hal_dac.c ****       weak (surcharged) function. It allows to reset following callbacks:
 268:Drivers/STM32L4xx_HAL_Driver/Src/stm32l4xx_hal_dac.c ****       (+) ConvCpltCallbackCh1     : callback when a half transfer is completed on Ch1.
 269:Drivers/STM32L4xx_HAL_Driver/Src/stm32l4xx_hal_dac.c ****       (+) ConvHalfCpltCallbackCh1 : callback when a transfer is completed on Ch1.
 270:Drivers/STM32L4xx_HAL_Driver/Src/stm32l4xx_hal_dac.c ****       (+) ErrorCallbackCh1        : callback when an error occurs on Ch1.
 271:Drivers/STM32L4xx_HAL_Driver/Src/stm32l4xx_hal_dac.c ****       (+) DMAUnderrunCallbackCh1  : callback when an underrun error occurs on Ch1.
 272:Drivers/STM32L4xx_HAL_Driver/Src/stm32l4xx_hal_dac.c ****       (+) ConvCpltCallbackCh2     : callback when a half transfer is completed on Ch2.
 273:Drivers/STM32L4xx_HAL_Driver/Src/stm32l4xx_hal_dac.c ****       (+) ConvHalfCpltCallbackCh2 : callback when a transfer is completed on Ch2.
 274:Drivers/STM32L4xx_HAL_Driver/Src/stm32l4xx_hal_dac.c ****       (+) ErrorCallbackCh2        : callback when an error occurs on Ch2.
 275:Drivers/STM32L4xx_HAL_Driver/Src/stm32l4xx_hal_dac.c ****       (+) DMAUnderrunCallbackCh2  : callback when an underrun error occurs on Ch2.
 276:Drivers/STM32L4xx_HAL_Driver/Src/stm32l4xx_hal_dac.c ****       (+) MspInitCallback         : DAC MspInit.
 277:Drivers/STM32L4xx_HAL_Driver/Src/stm32l4xx_hal_dac.c ****       (+) MspDeInitCallback       : DAC MspdeInit.
 278:Drivers/STM32L4xx_HAL_Driver/Src/stm32l4xx_hal_dac.c ****       (+) All Callbacks
 279:Drivers/STM32L4xx_HAL_Driver/Src/stm32l4xx_hal_dac.c ****       This function) takes as parameters the HAL peripheral handle and the Callback ID.
 280:Drivers/STM32L4xx_HAL_Driver/Src/stm32l4xx_hal_dac.c **** 
 281:Drivers/STM32L4xx_HAL_Driver/Src/stm32l4xx_hal_dac.c ****       By default, after the HAL_DAC_Init and if the state is HAL_DAC_STATE_RESET
 282:Drivers/STM32L4xx_HAL_Driver/Src/stm32l4xx_hal_dac.c ****       all callbacks are reset to the corresponding legacy weak (surcharged) functions.
 283:Drivers/STM32L4xx_HAL_Driver/Src/stm32l4xx_hal_dac.c ****       Exception done for MspInit and MspDeInit callbacks that are respectively
 284:Drivers/STM32L4xx_HAL_Driver/Src/stm32l4xx_hal_dac.c ****       reset to the legacy weak (surcharged) functions in the HAL_DAC_Init
 285:Drivers/STM32L4xx_HAL_Driver/Src/stm32l4xx_hal_dac.c ****       and HAL_DAC_DeInit only when these callbacks are null (not registered beforehand).
 286:Drivers/STM32L4xx_HAL_Driver/Src/stm32l4xx_hal_dac.c ****       If not, MspInit or MspDeInit are not null, the HAL_DAC_Init and HAL_DAC_DeInit
 287:Drivers/STM32L4xx_HAL_Driver/Src/stm32l4xx_hal_dac.c ****       keep and use the user MspInit/MspDeInit callbacks (registered beforehand)
 288:Drivers/STM32L4xx_HAL_Driver/Src/stm32l4xx_hal_dac.c **** 
 289:Drivers/STM32L4xx_HAL_Driver/Src/stm32l4xx_hal_dac.c ****       Callbacks can be registered/unregistered in READY state only.
 290:Drivers/STM32L4xx_HAL_Driver/Src/stm32l4xx_hal_dac.c ****       Exception done for MspInit/MspDeInit callbacks that can be registered/unregistered
 291:Drivers/STM32L4xx_HAL_Driver/Src/stm32l4xx_hal_dac.c ****       in READY or RESET state, thus registered (user) MspInit/DeInit callbacks can be used
 292:Drivers/STM32L4xx_HAL_Driver/Src/stm32l4xx_hal_dac.c ****       during the Init/DeInit.
 293:Drivers/STM32L4xx_HAL_Driver/Src/stm32l4xx_hal_dac.c ****       In that case first register the MspInit/MspDeInit user callbacks
 294:Drivers/STM32L4xx_HAL_Driver/Src/stm32l4xx_hal_dac.c ****       using HAL_DAC_RegisterCallback before calling HAL_DAC_DeInit
 295:Drivers/STM32L4xx_HAL_Driver/Src/stm32l4xx_hal_dac.c ****       or HAL_DAC_Init function.
 296:Drivers/STM32L4xx_HAL_Driver/Src/stm32l4xx_hal_dac.c **** 
 297:Drivers/STM32L4xx_HAL_Driver/Src/stm32l4xx_hal_dac.c ****       When The compilation define USE_HAL_DAC_REGISTER_CALLBACKS is set to 0 or
 298:Drivers/STM32L4xx_HAL_Driver/Src/stm32l4xx_hal_dac.c ****       not defined, the callback registering feature is not available
 299:Drivers/STM32L4xx_HAL_Driver/Src/stm32l4xx_hal_dac.c ****       and weak (surcharged) callbacks are used.
 300:Drivers/STM32L4xx_HAL_Driver/Src/stm32l4xx_hal_dac.c **** 
 301:Drivers/STM32L4xx_HAL_Driver/Src/stm32l4xx_hal_dac.c ****      *** DAC HAL driver macros list ***
 302:Drivers/STM32L4xx_HAL_Driver/Src/stm32l4xx_hal_dac.c ****      =============================================
 303:Drivers/STM32L4xx_HAL_Driver/Src/stm32l4xx_hal_dac.c ****      [..]
 304:Drivers/STM32L4xx_HAL_Driver/Src/stm32l4xx_hal_dac.c ****        Below the list of most used macros in DAC HAL driver.
 305:Drivers/STM32L4xx_HAL_Driver/Src/stm32l4xx_hal_dac.c **** 
 306:Drivers/STM32L4xx_HAL_Driver/Src/stm32l4xx_hal_dac.c ****       (+) __HAL_DAC_ENABLE : Enable the DAC peripheral
 307:Drivers/STM32L4xx_HAL_Driver/Src/stm32l4xx_hal_dac.c ****       (+) __HAL_DAC_DISABLE : Disable the DAC peripheral
 308:Drivers/STM32L4xx_HAL_Driver/Src/stm32l4xx_hal_dac.c ****       (+) __HAL_DAC_CLEAR_FLAG: Clear the DAC's pending flags
 309:Drivers/STM32L4xx_HAL_Driver/Src/stm32l4xx_hal_dac.c ****       (+) __HAL_DAC_GET_FLAG: Get the selected DAC's flag status
 310:Drivers/STM32L4xx_HAL_Driver/Src/stm32l4xx_hal_dac.c **** 
 311:Drivers/STM32L4xx_HAL_Driver/Src/stm32l4xx_hal_dac.c ****      [..]
 312:Drivers/STM32L4xx_HAL_Driver/Src/stm32l4xx_hal_dac.c ****       (@) You can refer to the DAC HAL driver header file for more useful macros
 313:Drivers/STM32L4xx_HAL_Driver/Src/stm32l4xx_hal_dac.c **** 
 314:Drivers/STM32L4xx_HAL_Driver/Src/stm32l4xx_hal_dac.c ****  @endverbatim
ARM GAS  /tmp/cc4ENhcr.s 			page 7


 315:Drivers/STM32L4xx_HAL_Driver/Src/stm32l4xx_hal_dac.c ****   ******************************************************************************
 316:Drivers/STM32L4xx_HAL_Driver/Src/stm32l4xx_hal_dac.c ****   */
 317:Drivers/STM32L4xx_HAL_Driver/Src/stm32l4xx_hal_dac.c **** 
 318:Drivers/STM32L4xx_HAL_Driver/Src/stm32l4xx_hal_dac.c **** /* Includes ------------------------------------------------------------------*/
 319:Drivers/STM32L4xx_HAL_Driver/Src/stm32l4xx_hal_dac.c **** #include "stm32l4xx_hal.h"
 320:Drivers/STM32L4xx_HAL_Driver/Src/stm32l4xx_hal_dac.c **** 
 321:Drivers/STM32L4xx_HAL_Driver/Src/stm32l4xx_hal_dac.c **** /** @addtogroup STM32L4xx_HAL_Driver
 322:Drivers/STM32L4xx_HAL_Driver/Src/stm32l4xx_hal_dac.c ****   * @{
 323:Drivers/STM32L4xx_HAL_Driver/Src/stm32l4xx_hal_dac.c ****   */
 324:Drivers/STM32L4xx_HAL_Driver/Src/stm32l4xx_hal_dac.c **** 
 325:Drivers/STM32L4xx_HAL_Driver/Src/stm32l4xx_hal_dac.c **** #ifdef HAL_DAC_MODULE_ENABLED
 326:Drivers/STM32L4xx_HAL_Driver/Src/stm32l4xx_hal_dac.c **** #if defined(DAC1)
 327:Drivers/STM32L4xx_HAL_Driver/Src/stm32l4xx_hal_dac.c **** 
 328:Drivers/STM32L4xx_HAL_Driver/Src/stm32l4xx_hal_dac.c ****   /** @defgroup DAC DAC
 329:Drivers/STM32L4xx_HAL_Driver/Src/stm32l4xx_hal_dac.c ****   * @brief DAC driver modules
 330:Drivers/STM32L4xx_HAL_Driver/Src/stm32l4xx_hal_dac.c ****   * @{
 331:Drivers/STM32L4xx_HAL_Driver/Src/stm32l4xx_hal_dac.c ****   */
 332:Drivers/STM32L4xx_HAL_Driver/Src/stm32l4xx_hal_dac.c **** 
 333:Drivers/STM32L4xx_HAL_Driver/Src/stm32l4xx_hal_dac.c **** /* Private typedef -----------------------------------------------------------*/
 334:Drivers/STM32L4xx_HAL_Driver/Src/stm32l4xx_hal_dac.c **** /* Private define ------------------------------------------------------------*/
 335:Drivers/STM32L4xx_HAL_Driver/Src/stm32l4xx_hal_dac.c **** /* Private constants ---------------------------------------------------------*/
 336:Drivers/STM32L4xx_HAL_Driver/Src/stm32l4xx_hal_dac.c **** /** @addtogroup DAC_Private_Constants DAC Private Constants
 337:Drivers/STM32L4xx_HAL_Driver/Src/stm32l4xx_hal_dac.c ****   * @{
 338:Drivers/STM32L4xx_HAL_Driver/Src/stm32l4xx_hal_dac.c ****   */
 339:Drivers/STM32L4xx_HAL_Driver/Src/stm32l4xx_hal_dac.c **** #define TIMEOUT_DAC_CALIBCONFIG        1U         /* 1   ms        */
 340:Drivers/STM32L4xx_HAL_Driver/Src/stm32l4xx_hal_dac.c **** #define HFSEL_ENABLE_THRESHOLD_80MHZ   80000000U  /* 80 MHz        */
 341:Drivers/STM32L4xx_HAL_Driver/Src/stm32l4xx_hal_dac.c **** 
 342:Drivers/STM32L4xx_HAL_Driver/Src/stm32l4xx_hal_dac.c **** /**
 343:Drivers/STM32L4xx_HAL_Driver/Src/stm32l4xx_hal_dac.c ****   * @}
 344:Drivers/STM32L4xx_HAL_Driver/Src/stm32l4xx_hal_dac.c ****   */
 345:Drivers/STM32L4xx_HAL_Driver/Src/stm32l4xx_hal_dac.c **** 
 346:Drivers/STM32L4xx_HAL_Driver/Src/stm32l4xx_hal_dac.c **** /* Private macro -------------------------------------------------------------*/
 347:Drivers/STM32L4xx_HAL_Driver/Src/stm32l4xx_hal_dac.c **** /* Private variables ---------------------------------------------------------*/
 348:Drivers/STM32L4xx_HAL_Driver/Src/stm32l4xx_hal_dac.c **** /* Private function prototypes -----------------------------------------------*/
 349:Drivers/STM32L4xx_HAL_Driver/Src/stm32l4xx_hal_dac.c **** /* Exported functions -------------------------------------------------------*/
 350:Drivers/STM32L4xx_HAL_Driver/Src/stm32l4xx_hal_dac.c **** 
 351:Drivers/STM32L4xx_HAL_Driver/Src/stm32l4xx_hal_dac.c **** /** @defgroup DAC_Exported_Functions DAC Exported Functions
 352:Drivers/STM32L4xx_HAL_Driver/Src/stm32l4xx_hal_dac.c ****   * @{
 353:Drivers/STM32L4xx_HAL_Driver/Src/stm32l4xx_hal_dac.c ****   */
 354:Drivers/STM32L4xx_HAL_Driver/Src/stm32l4xx_hal_dac.c **** 
 355:Drivers/STM32L4xx_HAL_Driver/Src/stm32l4xx_hal_dac.c **** /** @defgroup DAC_Exported_Functions_Group1 Initialization and de-initialization functions
 356:Drivers/STM32L4xx_HAL_Driver/Src/stm32l4xx_hal_dac.c ****  *  @brief    Initialization and Configuration functions
 357:Drivers/STM32L4xx_HAL_Driver/Src/stm32l4xx_hal_dac.c ****  *
 358:Drivers/STM32L4xx_HAL_Driver/Src/stm32l4xx_hal_dac.c **** @verbatim
 359:Drivers/STM32L4xx_HAL_Driver/Src/stm32l4xx_hal_dac.c ****   ==============================================================================
 360:Drivers/STM32L4xx_HAL_Driver/Src/stm32l4xx_hal_dac.c ****               ##### Initialization and de-initialization functions #####
 361:Drivers/STM32L4xx_HAL_Driver/Src/stm32l4xx_hal_dac.c ****   ==============================================================================
 362:Drivers/STM32L4xx_HAL_Driver/Src/stm32l4xx_hal_dac.c ****     [..]  This section provides functions allowing to:
 363:Drivers/STM32L4xx_HAL_Driver/Src/stm32l4xx_hal_dac.c ****       (+) Initialize and configure the DAC.
 364:Drivers/STM32L4xx_HAL_Driver/Src/stm32l4xx_hal_dac.c ****       (+) De-initialize the DAC.
 365:Drivers/STM32L4xx_HAL_Driver/Src/stm32l4xx_hal_dac.c **** 
 366:Drivers/STM32L4xx_HAL_Driver/Src/stm32l4xx_hal_dac.c **** @endverbatim
 367:Drivers/STM32L4xx_HAL_Driver/Src/stm32l4xx_hal_dac.c ****   * @{
 368:Drivers/STM32L4xx_HAL_Driver/Src/stm32l4xx_hal_dac.c ****   */
 369:Drivers/STM32L4xx_HAL_Driver/Src/stm32l4xx_hal_dac.c **** 
 370:Drivers/STM32L4xx_HAL_Driver/Src/stm32l4xx_hal_dac.c **** /**
 371:Drivers/STM32L4xx_HAL_Driver/Src/stm32l4xx_hal_dac.c ****   * @brief  Initialize the DAC peripheral according to the specified parameters
ARM GAS  /tmp/cc4ENhcr.s 			page 8


 372:Drivers/STM32L4xx_HAL_Driver/Src/stm32l4xx_hal_dac.c ****   *         in the DAC_InitStruct and initialize the associated handle.
 373:Drivers/STM32L4xx_HAL_Driver/Src/stm32l4xx_hal_dac.c ****   * @param  hdac pointer to a DAC_HandleTypeDef structure that contains
 374:Drivers/STM32L4xx_HAL_Driver/Src/stm32l4xx_hal_dac.c ****   *         the configuration information for the specified DAC.
 375:Drivers/STM32L4xx_HAL_Driver/Src/stm32l4xx_hal_dac.c ****   * @retval HAL status
 376:Drivers/STM32L4xx_HAL_Driver/Src/stm32l4xx_hal_dac.c ****   */
 377:Drivers/STM32L4xx_HAL_Driver/Src/stm32l4xx_hal_dac.c **** HAL_StatusTypeDef HAL_DAC_Init(DAC_HandleTypeDef *hdac)
 378:Drivers/STM32L4xx_HAL_Driver/Src/stm32l4xx_hal_dac.c **** {
 379:Drivers/STM32L4xx_HAL_Driver/Src/stm32l4xx_hal_dac.c ****   /* Check DAC handle */
 380:Drivers/STM32L4xx_HAL_Driver/Src/stm32l4xx_hal_dac.c ****   if (hdac == NULL)
 381:Drivers/STM32L4xx_HAL_Driver/Src/stm32l4xx_hal_dac.c ****   {
 382:Drivers/STM32L4xx_HAL_Driver/Src/stm32l4xx_hal_dac.c ****      return HAL_ERROR;
 383:Drivers/STM32L4xx_HAL_Driver/Src/stm32l4xx_hal_dac.c ****   }
 384:Drivers/STM32L4xx_HAL_Driver/Src/stm32l4xx_hal_dac.c ****   /* Check the parameters */
 385:Drivers/STM32L4xx_HAL_Driver/Src/stm32l4xx_hal_dac.c ****   assert_param(IS_DAC_ALL_INSTANCE(hdac->Instance));
 386:Drivers/STM32L4xx_HAL_Driver/Src/stm32l4xx_hal_dac.c **** 
 387:Drivers/STM32L4xx_HAL_Driver/Src/stm32l4xx_hal_dac.c ****   if (hdac->State == HAL_DAC_STATE_RESET)
 388:Drivers/STM32L4xx_HAL_Driver/Src/stm32l4xx_hal_dac.c ****   {
 389:Drivers/STM32L4xx_HAL_Driver/Src/stm32l4xx_hal_dac.c **** #if (USE_HAL_DAC_REGISTER_CALLBACKS == 1)
 390:Drivers/STM32L4xx_HAL_Driver/Src/stm32l4xx_hal_dac.c ****     /* Init the DAC Callback settings */
 391:Drivers/STM32L4xx_HAL_Driver/Src/stm32l4xx_hal_dac.c ****     hdac->ConvCpltCallbackCh1           = HAL_DAC_ConvCpltCallbackCh1;
 392:Drivers/STM32L4xx_HAL_Driver/Src/stm32l4xx_hal_dac.c ****     hdac->ConvHalfCpltCallbackCh1       = HAL_DAC_ConvHalfCpltCallbackCh1;
 393:Drivers/STM32L4xx_HAL_Driver/Src/stm32l4xx_hal_dac.c ****     hdac->ErrorCallbackCh1              = HAL_DAC_ErrorCallbackCh1;
 394:Drivers/STM32L4xx_HAL_Driver/Src/stm32l4xx_hal_dac.c ****     hdac->DMAUnderrunCallbackCh1        = HAL_DAC_DMAUnderrunCallbackCh1;
 395:Drivers/STM32L4xx_HAL_Driver/Src/stm32l4xx_hal_dac.c **** 
 396:Drivers/STM32L4xx_HAL_Driver/Src/stm32l4xx_hal_dac.c **** #if defined (STM32L431xx) || defined (STM32L432xx) || defined (STM32L433xx) || defined (STM32L442xx
 397:Drivers/STM32L4xx_HAL_Driver/Src/stm32l4xx_hal_dac.c ****     defined (STM32L471xx) || defined (STM32L475xx) || defined (STM32L476xx) || defined (STM32L485xx
 398:Drivers/STM32L4xx_HAL_Driver/Src/stm32l4xx_hal_dac.c ****     defined (STM32L4P5xx) || defined (STM32L4Q5xx) || \
 399:Drivers/STM32L4xx_HAL_Driver/Src/stm32l4xx_hal_dac.c ****     defined (STM32L4R5xx) || defined (STM32L4R7xx) || defined (STM32L4R9xx) || defined (STM32L4S5xx
 400:Drivers/STM32L4xx_HAL_Driver/Src/stm32l4xx_hal_dac.c ****     hdac->ConvCpltCallbackCh2           = HAL_DACEx_ConvCpltCallbackCh2;
 401:Drivers/STM32L4xx_HAL_Driver/Src/stm32l4xx_hal_dac.c ****     hdac->ConvHalfCpltCallbackCh2       = HAL_DACEx_ConvHalfCpltCallbackCh2;
 402:Drivers/STM32L4xx_HAL_Driver/Src/stm32l4xx_hal_dac.c ****     hdac->ErrorCallbackCh2              = HAL_DACEx_ErrorCallbackCh2;
 403:Drivers/STM32L4xx_HAL_Driver/Src/stm32l4xx_hal_dac.c ****     hdac->DMAUnderrunCallbackCh2        = HAL_DACEx_DMAUnderrunCallbackCh2;
 404:Drivers/STM32L4xx_HAL_Driver/Src/stm32l4xx_hal_dac.c **** #endif  /* STM32L431xx STM32L432xx STM32L433xx STM32L442xx STM32L443xx                         */
 405:Drivers/STM32L4xx_HAL_Driver/Src/stm32l4xx_hal_dac.c ****         /* STM32L471xx STM32L475xx STM32L476xx STM32L485xx STM32L486xx STM32L496xx STM32L4A6xx */
 406:Drivers/STM32L4xx_HAL_Driver/Src/stm32l4xx_hal_dac.c ****         /* STM32L4P5xx STM32L4Q5xx                                                             */
 407:Drivers/STM32L4xx_HAL_Driver/Src/stm32l4xx_hal_dac.c ****         /* STM32L4R5xx STM32L4R7xx STM32L4R9xx STM32L4S5xx STM32L4S7xx STM32L4S9xx             */
 408:Drivers/STM32L4xx_HAL_Driver/Src/stm32l4xx_hal_dac.c ****     
 409:Drivers/STM32L4xx_HAL_Driver/Src/stm32l4xx_hal_dac.c ****     if (hdac->MspInitCallback == NULL)
 410:Drivers/STM32L4xx_HAL_Driver/Src/stm32l4xx_hal_dac.c ****     {
 411:Drivers/STM32L4xx_HAL_Driver/Src/stm32l4xx_hal_dac.c ****       hdac->MspInitCallback             = HAL_DAC_MspInit;
 412:Drivers/STM32L4xx_HAL_Driver/Src/stm32l4xx_hal_dac.c ****     }
 413:Drivers/STM32L4xx_HAL_Driver/Src/stm32l4xx_hal_dac.c **** #endif /* USE_HAL_DAC_REGISTER_CALLBACKS */
 414:Drivers/STM32L4xx_HAL_Driver/Src/stm32l4xx_hal_dac.c **** 
 415:Drivers/STM32L4xx_HAL_Driver/Src/stm32l4xx_hal_dac.c ****     /* Allocate lock resource and initialize it */
 416:Drivers/STM32L4xx_HAL_Driver/Src/stm32l4xx_hal_dac.c ****     hdac->Lock = HAL_UNLOCKED;
 417:Drivers/STM32L4xx_HAL_Driver/Src/stm32l4xx_hal_dac.c **** 
 418:Drivers/STM32L4xx_HAL_Driver/Src/stm32l4xx_hal_dac.c **** #if (USE_HAL_DAC_REGISTER_CALLBACKS == 1)
 419:Drivers/STM32L4xx_HAL_Driver/Src/stm32l4xx_hal_dac.c ****     /* Init the low level hardware */
 420:Drivers/STM32L4xx_HAL_Driver/Src/stm32l4xx_hal_dac.c ****     hdac->MspInitCallback(hdac);
 421:Drivers/STM32L4xx_HAL_Driver/Src/stm32l4xx_hal_dac.c **** #else
 422:Drivers/STM32L4xx_HAL_Driver/Src/stm32l4xx_hal_dac.c ****     /* Init the low level hardware */
 423:Drivers/STM32L4xx_HAL_Driver/Src/stm32l4xx_hal_dac.c ****     HAL_DAC_MspInit(hdac);
 424:Drivers/STM32L4xx_HAL_Driver/Src/stm32l4xx_hal_dac.c **** #endif /* USE_HAL_DAC_REGISTER_CALLBACKS */
 425:Drivers/STM32L4xx_HAL_Driver/Src/stm32l4xx_hal_dac.c ****   }
 426:Drivers/STM32L4xx_HAL_Driver/Src/stm32l4xx_hal_dac.c **** 
 427:Drivers/STM32L4xx_HAL_Driver/Src/stm32l4xx_hal_dac.c ****   /* Initialize the DAC state*/
 428:Drivers/STM32L4xx_HAL_Driver/Src/stm32l4xx_hal_dac.c ****   hdac->State = HAL_DAC_STATE_BUSY;
ARM GAS  /tmp/cc4ENhcr.s 			page 9


 429:Drivers/STM32L4xx_HAL_Driver/Src/stm32l4xx_hal_dac.c **** 
 430:Drivers/STM32L4xx_HAL_Driver/Src/stm32l4xx_hal_dac.c ****   /* Set DAC error code to none */
 431:Drivers/STM32L4xx_HAL_Driver/Src/stm32l4xx_hal_dac.c ****   hdac->ErrorCode = HAL_DAC_ERROR_NONE;
 432:Drivers/STM32L4xx_HAL_Driver/Src/stm32l4xx_hal_dac.c **** 
 433:Drivers/STM32L4xx_HAL_Driver/Src/stm32l4xx_hal_dac.c ****   /* Initialize the DAC state*/
 434:Drivers/STM32L4xx_HAL_Driver/Src/stm32l4xx_hal_dac.c ****   hdac->State = HAL_DAC_STATE_READY;
 435:Drivers/STM32L4xx_HAL_Driver/Src/stm32l4xx_hal_dac.c **** 
 436:Drivers/STM32L4xx_HAL_Driver/Src/stm32l4xx_hal_dac.c ****   /* Return function status */
 437:Drivers/STM32L4xx_HAL_Driver/Src/stm32l4xx_hal_dac.c ****   return HAL_OK;
 438:Drivers/STM32L4xx_HAL_Driver/Src/stm32l4xx_hal_dac.c **** }
 439:Drivers/STM32L4xx_HAL_Driver/Src/stm32l4xx_hal_dac.c **** 
 440:Drivers/STM32L4xx_HAL_Driver/Src/stm32l4xx_hal_dac.c **** /**
 441:Drivers/STM32L4xx_HAL_Driver/Src/stm32l4xx_hal_dac.c ****   * @brief  Deinitialize the DAC peripheral registers to their default reset values.
 442:Drivers/STM32L4xx_HAL_Driver/Src/stm32l4xx_hal_dac.c ****   * @param  hdac pointer to a DAC_HandleTypeDef structure that contains
 443:Drivers/STM32L4xx_HAL_Driver/Src/stm32l4xx_hal_dac.c ****   *         the configuration information for the specified DAC.
 444:Drivers/STM32L4xx_HAL_Driver/Src/stm32l4xx_hal_dac.c ****   * @retval HAL status
 445:Drivers/STM32L4xx_HAL_Driver/Src/stm32l4xx_hal_dac.c ****   */
 446:Drivers/STM32L4xx_HAL_Driver/Src/stm32l4xx_hal_dac.c **** HAL_StatusTypeDef HAL_DAC_DeInit(DAC_HandleTypeDef *hdac)
 447:Drivers/STM32L4xx_HAL_Driver/Src/stm32l4xx_hal_dac.c **** {
 448:Drivers/STM32L4xx_HAL_Driver/Src/stm32l4xx_hal_dac.c ****   /* Check DAC handle */
 449:Drivers/STM32L4xx_HAL_Driver/Src/stm32l4xx_hal_dac.c ****   if (hdac == NULL)
 450:Drivers/STM32L4xx_HAL_Driver/Src/stm32l4xx_hal_dac.c ****   {
 451:Drivers/STM32L4xx_HAL_Driver/Src/stm32l4xx_hal_dac.c ****     return HAL_ERROR;
 452:Drivers/STM32L4xx_HAL_Driver/Src/stm32l4xx_hal_dac.c ****   }
 453:Drivers/STM32L4xx_HAL_Driver/Src/stm32l4xx_hal_dac.c **** 
 454:Drivers/STM32L4xx_HAL_Driver/Src/stm32l4xx_hal_dac.c ****   /* Check the parameters */
 455:Drivers/STM32L4xx_HAL_Driver/Src/stm32l4xx_hal_dac.c ****   assert_param(IS_DAC_ALL_INSTANCE(hdac->Instance));
 456:Drivers/STM32L4xx_HAL_Driver/Src/stm32l4xx_hal_dac.c **** 
 457:Drivers/STM32L4xx_HAL_Driver/Src/stm32l4xx_hal_dac.c ****   /* Change DAC state */
 458:Drivers/STM32L4xx_HAL_Driver/Src/stm32l4xx_hal_dac.c ****   hdac->State = HAL_DAC_STATE_BUSY;
 459:Drivers/STM32L4xx_HAL_Driver/Src/stm32l4xx_hal_dac.c **** 
 460:Drivers/STM32L4xx_HAL_Driver/Src/stm32l4xx_hal_dac.c **** #if (USE_HAL_DAC_REGISTER_CALLBACKS == 1)
 461:Drivers/STM32L4xx_HAL_Driver/Src/stm32l4xx_hal_dac.c ****   if (hdac->MspDeInitCallback == NULL)
 462:Drivers/STM32L4xx_HAL_Driver/Src/stm32l4xx_hal_dac.c ****   {
 463:Drivers/STM32L4xx_HAL_Driver/Src/stm32l4xx_hal_dac.c ****     hdac->MspDeInitCallback = HAL_DAC_MspDeInit;
 464:Drivers/STM32L4xx_HAL_Driver/Src/stm32l4xx_hal_dac.c ****   }
 465:Drivers/STM32L4xx_HAL_Driver/Src/stm32l4xx_hal_dac.c ****   /* DeInit the low level hardware */
 466:Drivers/STM32L4xx_HAL_Driver/Src/stm32l4xx_hal_dac.c ****   hdac->MspDeInitCallback(hdac);
 467:Drivers/STM32L4xx_HAL_Driver/Src/stm32l4xx_hal_dac.c **** #else
 468:Drivers/STM32L4xx_HAL_Driver/Src/stm32l4xx_hal_dac.c ****   /* DeInit the low level hardware */
 469:Drivers/STM32L4xx_HAL_Driver/Src/stm32l4xx_hal_dac.c ****   HAL_DAC_MspDeInit(hdac);
 470:Drivers/STM32L4xx_HAL_Driver/Src/stm32l4xx_hal_dac.c **** #endif /* USE_HAL_DAC_REGISTER_CALLBACKS */
 471:Drivers/STM32L4xx_HAL_Driver/Src/stm32l4xx_hal_dac.c **** 
 472:Drivers/STM32L4xx_HAL_Driver/Src/stm32l4xx_hal_dac.c ****   /* Set DAC error code to none */
 473:Drivers/STM32L4xx_HAL_Driver/Src/stm32l4xx_hal_dac.c ****   hdac->ErrorCode = HAL_DAC_ERROR_NONE;
 474:Drivers/STM32L4xx_HAL_Driver/Src/stm32l4xx_hal_dac.c **** 
 475:Drivers/STM32L4xx_HAL_Driver/Src/stm32l4xx_hal_dac.c ****   /* Change DAC state */
 476:Drivers/STM32L4xx_HAL_Driver/Src/stm32l4xx_hal_dac.c ****   hdac->State = HAL_DAC_STATE_RESET;
 477:Drivers/STM32L4xx_HAL_Driver/Src/stm32l4xx_hal_dac.c **** 
 478:Drivers/STM32L4xx_HAL_Driver/Src/stm32l4xx_hal_dac.c ****   /* Release Lock */
 479:Drivers/STM32L4xx_HAL_Driver/Src/stm32l4xx_hal_dac.c ****   __HAL_UNLOCK(hdac);
 480:Drivers/STM32L4xx_HAL_Driver/Src/stm32l4xx_hal_dac.c **** 
 481:Drivers/STM32L4xx_HAL_Driver/Src/stm32l4xx_hal_dac.c ****   /* Return function status */
 482:Drivers/STM32L4xx_HAL_Driver/Src/stm32l4xx_hal_dac.c ****   return HAL_OK;
 483:Drivers/STM32L4xx_HAL_Driver/Src/stm32l4xx_hal_dac.c **** }
 484:Drivers/STM32L4xx_HAL_Driver/Src/stm32l4xx_hal_dac.c **** 
 485:Drivers/STM32L4xx_HAL_Driver/Src/stm32l4xx_hal_dac.c **** /**
ARM GAS  /tmp/cc4ENhcr.s 			page 10


 486:Drivers/STM32L4xx_HAL_Driver/Src/stm32l4xx_hal_dac.c ****   * @brief  Initialize the DAC MSP.
 487:Drivers/STM32L4xx_HAL_Driver/Src/stm32l4xx_hal_dac.c ****   * @param  hdac pointer to a DAC_HandleTypeDef structure that contains
 488:Drivers/STM32L4xx_HAL_Driver/Src/stm32l4xx_hal_dac.c ****   *         the configuration information for the specified DAC.
 489:Drivers/STM32L4xx_HAL_Driver/Src/stm32l4xx_hal_dac.c ****   * @retval None
 490:Drivers/STM32L4xx_HAL_Driver/Src/stm32l4xx_hal_dac.c ****   */
 491:Drivers/STM32L4xx_HAL_Driver/Src/stm32l4xx_hal_dac.c **** __weak void HAL_DAC_MspInit(DAC_HandleTypeDef *hdac)
 492:Drivers/STM32L4xx_HAL_Driver/Src/stm32l4xx_hal_dac.c **** {
  30              		.loc 1 492 1 view -0
  31              		.cfi_startproc
  32              		@ args = 0, pretend = 0, frame = 0
  33              		@ frame_needed = 0, uses_anonymous_args = 0
  34              		@ link register save eliminated.
 493:Drivers/STM32L4xx_HAL_Driver/Src/stm32l4xx_hal_dac.c ****   /* Prevent unused argument(s) compilation warning */
 494:Drivers/STM32L4xx_HAL_Driver/Src/stm32l4xx_hal_dac.c ****   UNUSED(hdac);
  35              		.loc 1 494 3 view .LVU1
 495:Drivers/STM32L4xx_HAL_Driver/Src/stm32l4xx_hal_dac.c **** 
 496:Drivers/STM32L4xx_HAL_Driver/Src/stm32l4xx_hal_dac.c ****   /* NOTE : This function should not be modified, when the callback is needed,
 497:Drivers/STM32L4xx_HAL_Driver/Src/stm32l4xx_hal_dac.c ****             the HAL_DAC_MspInit could be implemented in the user file
 498:Drivers/STM32L4xx_HAL_Driver/Src/stm32l4xx_hal_dac.c ****    */
 499:Drivers/STM32L4xx_HAL_Driver/Src/stm32l4xx_hal_dac.c **** }
  36              		.loc 1 499 1 is_stmt 0 view .LVU2
  37 0000 7047     		bx	lr
  38              		.cfi_endproc
  39              	.LFE134:
  41              		.section	.text.HAL_DAC_Init,"ax",%progbits
  42              		.align	1
  43              		.global	HAL_DAC_Init
  44              		.syntax unified
  45              		.thumb
  46              		.thumb_func
  47              		.fpu fpv4-sp-d16
  49              	HAL_DAC_Init:
  50              	.LVL1:
  51              	.LFB132:
 378:Drivers/STM32L4xx_HAL_Driver/Src/stm32l4xx_hal_dac.c ****   /* Check DAC handle */
  52              		.loc 1 378 1 is_stmt 1 view -0
  53              		.cfi_startproc
  54              		@ args = 0, pretend = 0, frame = 0
  55              		@ frame_needed = 0, uses_anonymous_args = 0
 380:Drivers/STM32L4xx_HAL_Driver/Src/stm32l4xx_hal_dac.c ****   {
  56              		.loc 1 380 3 view .LVU4
 380:Drivers/STM32L4xx_HAL_Driver/Src/stm32l4xx_hal_dac.c ****   {
  57              		.loc 1 380 6 is_stmt 0 view .LVU5
  58 0000 70B1     		cbz	r0, .L5
 378:Drivers/STM32L4xx_HAL_Driver/Src/stm32l4xx_hal_dac.c ****   /* Check DAC handle */
  59              		.loc 1 378 1 view .LVU6
  60 0002 10B5     		push	{r4, lr}
  61              	.LCFI0:
  62              		.cfi_def_cfa_offset 8
  63              		.cfi_offset 4, -8
  64              		.cfi_offset 14, -4
  65 0004 0446     		mov	r4, r0
 385:Drivers/STM32L4xx_HAL_Driver/Src/stm32l4xx_hal_dac.c **** 
  66              		.loc 1 385 3 is_stmt 1 view .LVU7
 387:Drivers/STM32L4xx_HAL_Driver/Src/stm32l4xx_hal_dac.c ****   {
  67              		.loc 1 387 3 view .LVU8
 387:Drivers/STM32L4xx_HAL_Driver/Src/stm32l4xx_hal_dac.c ****   {
ARM GAS  /tmp/cc4ENhcr.s 			page 11


  68              		.loc 1 387 11 is_stmt 0 view .LVU9
  69 0006 0379     		ldrb	r3, [r0, #4]	@ zero_extendqisi2
 387:Drivers/STM32L4xx_HAL_Driver/Src/stm32l4xx_hal_dac.c ****   {
  70              		.loc 1 387 6 view .LVU10
  71 0008 33B1     		cbz	r3, .L10
  72              	.LVL2:
  73              	.L4:
 428:Drivers/STM32L4xx_HAL_Driver/Src/stm32l4xx_hal_dac.c **** 
  74              		.loc 1 428 3 is_stmt 1 view .LVU11
 428:Drivers/STM32L4xx_HAL_Driver/Src/stm32l4xx_hal_dac.c **** 
  75              		.loc 1 428 15 is_stmt 0 view .LVU12
  76 000a 0223     		movs	r3, #2
  77 000c 2371     		strb	r3, [r4, #4]
 431:Drivers/STM32L4xx_HAL_Driver/Src/stm32l4xx_hal_dac.c **** 
  78              		.loc 1 431 3 is_stmt 1 view .LVU13
 431:Drivers/STM32L4xx_HAL_Driver/Src/stm32l4xx_hal_dac.c **** 
  79              		.loc 1 431 19 is_stmt 0 view .LVU14
  80 000e 0020     		movs	r0, #0
  81 0010 2061     		str	r0, [r4, #16]
 434:Drivers/STM32L4xx_HAL_Driver/Src/stm32l4xx_hal_dac.c **** 
  82              		.loc 1 434 3 is_stmt 1 view .LVU15
 434:Drivers/STM32L4xx_HAL_Driver/Src/stm32l4xx_hal_dac.c **** 
  83              		.loc 1 434 15 is_stmt 0 view .LVU16
  84 0012 0123     		movs	r3, #1
  85 0014 2371     		strb	r3, [r4, #4]
 437:Drivers/STM32L4xx_HAL_Driver/Src/stm32l4xx_hal_dac.c **** }
  86              		.loc 1 437 3 is_stmt 1 view .LVU17
 438:Drivers/STM32L4xx_HAL_Driver/Src/stm32l4xx_hal_dac.c **** 
  87              		.loc 1 438 1 is_stmt 0 view .LVU18
  88 0016 10BD     		pop	{r4, pc}
  89              	.LVL3:
  90              	.L10:
 416:Drivers/STM32L4xx_HAL_Driver/Src/stm32l4xx_hal_dac.c **** 
  91              		.loc 1 416 5 is_stmt 1 view .LVU19
 416:Drivers/STM32L4xx_HAL_Driver/Src/stm32l4xx_hal_dac.c **** 
  92              		.loc 1 416 16 is_stmt 0 view .LVU20
  93 0018 4371     		strb	r3, [r0, #5]
 423:Drivers/STM32L4xx_HAL_Driver/Src/stm32l4xx_hal_dac.c **** #endif /* USE_HAL_DAC_REGISTER_CALLBACKS */
  94              		.loc 1 423 5 is_stmt 1 view .LVU21
  95 001a FFF7FEFF 		bl	HAL_DAC_MspInit
  96              	.LVL4:
 423:Drivers/STM32L4xx_HAL_Driver/Src/stm32l4xx_hal_dac.c **** #endif /* USE_HAL_DAC_REGISTER_CALLBACKS */
  97              		.loc 1 423 5 is_stmt 0 view .LVU22
  98 001e F4E7     		b	.L4
  99              	.LVL5:
 100              	.L5:
 101              	.LCFI1:
 102              		.cfi_def_cfa_offset 0
 103              		.cfi_restore 4
 104              		.cfi_restore 14
 382:Drivers/STM32L4xx_HAL_Driver/Src/stm32l4xx_hal_dac.c ****   }
 105              		.loc 1 382 13 view .LVU23
 106 0020 0120     		movs	r0, #1
 107              	.LVL6:
 438:Drivers/STM32L4xx_HAL_Driver/Src/stm32l4xx_hal_dac.c **** 
 108              		.loc 1 438 1 view .LVU24
 109 0022 7047     		bx	lr
ARM GAS  /tmp/cc4ENhcr.s 			page 12


 110              		.cfi_endproc
 111              	.LFE132:
 113              		.section	.text.HAL_DAC_MspDeInit,"ax",%progbits
 114              		.align	1
 115              		.weak	HAL_DAC_MspDeInit
 116              		.syntax unified
 117              		.thumb
 118              		.thumb_func
 119              		.fpu fpv4-sp-d16
 121              	HAL_DAC_MspDeInit:
 122              	.LVL7:
 123              	.LFB135:
 500:Drivers/STM32L4xx_HAL_Driver/Src/stm32l4xx_hal_dac.c **** 
 501:Drivers/STM32L4xx_HAL_Driver/Src/stm32l4xx_hal_dac.c **** /**
 502:Drivers/STM32L4xx_HAL_Driver/Src/stm32l4xx_hal_dac.c ****   * @brief  DeInitialize the DAC MSP.
 503:Drivers/STM32L4xx_HAL_Driver/Src/stm32l4xx_hal_dac.c ****   * @param  hdac pointer to a DAC_HandleTypeDef structure that contains
 504:Drivers/STM32L4xx_HAL_Driver/Src/stm32l4xx_hal_dac.c ****   *         the configuration information for the specified DAC.
 505:Drivers/STM32L4xx_HAL_Driver/Src/stm32l4xx_hal_dac.c ****   * @retval None
 506:Drivers/STM32L4xx_HAL_Driver/Src/stm32l4xx_hal_dac.c ****   */
 507:Drivers/STM32L4xx_HAL_Driver/Src/stm32l4xx_hal_dac.c **** __weak void HAL_DAC_MspDeInit(DAC_HandleTypeDef *hdac)
 508:Drivers/STM32L4xx_HAL_Driver/Src/stm32l4xx_hal_dac.c **** {
 124              		.loc 1 508 1 is_stmt 1 view -0
 125              		.cfi_startproc
 126              		@ args = 0, pretend = 0, frame = 0
 127              		@ frame_needed = 0, uses_anonymous_args = 0
 128              		@ link register save eliminated.
 509:Drivers/STM32L4xx_HAL_Driver/Src/stm32l4xx_hal_dac.c ****   /* Prevent unused argument(s) compilation warning */
 510:Drivers/STM32L4xx_HAL_Driver/Src/stm32l4xx_hal_dac.c ****   UNUSED(hdac);
 129              		.loc 1 510 3 view .LVU26
 511:Drivers/STM32L4xx_HAL_Driver/Src/stm32l4xx_hal_dac.c **** 
 512:Drivers/STM32L4xx_HAL_Driver/Src/stm32l4xx_hal_dac.c ****   /* NOTE : This function should not be modified, when the callback is needed,
 513:Drivers/STM32L4xx_HAL_Driver/Src/stm32l4xx_hal_dac.c ****             the HAL_DAC_MspDeInit could be implemented in the user file
 514:Drivers/STM32L4xx_HAL_Driver/Src/stm32l4xx_hal_dac.c ****    */
 515:Drivers/STM32L4xx_HAL_Driver/Src/stm32l4xx_hal_dac.c **** }
 130              		.loc 1 515 1 is_stmt 0 view .LVU27
 131 0000 7047     		bx	lr
 132              		.cfi_endproc
 133              	.LFE135:
 135              		.section	.text.HAL_DAC_DeInit,"ax",%progbits
 136              		.align	1
 137              		.global	HAL_DAC_DeInit
 138              		.syntax unified
 139              		.thumb
 140              		.thumb_func
 141              		.fpu fpv4-sp-d16
 143              	HAL_DAC_DeInit:
 144              	.LVL8:
 145              	.LFB133:
 447:Drivers/STM32L4xx_HAL_Driver/Src/stm32l4xx_hal_dac.c ****   /* Check DAC handle */
 146              		.loc 1 447 1 is_stmt 1 view -0
 147              		.cfi_startproc
 148              		@ args = 0, pretend = 0, frame = 0
 149              		@ frame_needed = 0, uses_anonymous_args = 0
 449:Drivers/STM32L4xx_HAL_Driver/Src/stm32l4xx_hal_dac.c ****   {
 150              		.loc 1 449 3 view .LVU29
 449:Drivers/STM32L4xx_HAL_Driver/Src/stm32l4xx_hal_dac.c ****   {
 151              		.loc 1 449 6 is_stmt 0 view .LVU30
ARM GAS  /tmp/cc4ENhcr.s 			page 13


 152 0000 50B1     		cbz	r0, .L14
 447:Drivers/STM32L4xx_HAL_Driver/Src/stm32l4xx_hal_dac.c ****   /* Check DAC handle */
 153              		.loc 1 447 1 view .LVU31
 154 0002 10B5     		push	{r4, lr}
 155              	.LCFI2:
 156              		.cfi_def_cfa_offset 8
 157              		.cfi_offset 4, -8
 158              		.cfi_offset 14, -4
 159 0004 0446     		mov	r4, r0
 455:Drivers/STM32L4xx_HAL_Driver/Src/stm32l4xx_hal_dac.c **** 
 160              		.loc 1 455 3 is_stmt 1 view .LVU32
 458:Drivers/STM32L4xx_HAL_Driver/Src/stm32l4xx_hal_dac.c **** 
 161              		.loc 1 458 3 view .LVU33
 458:Drivers/STM32L4xx_HAL_Driver/Src/stm32l4xx_hal_dac.c **** 
 162              		.loc 1 458 15 is_stmt 0 view .LVU34
 163 0006 0223     		movs	r3, #2
 164 0008 0371     		strb	r3, [r0, #4]
 469:Drivers/STM32L4xx_HAL_Driver/Src/stm32l4xx_hal_dac.c **** #endif /* USE_HAL_DAC_REGISTER_CALLBACKS */
 165              		.loc 1 469 3 is_stmt 1 view .LVU35
 166 000a FFF7FEFF 		bl	HAL_DAC_MspDeInit
 167              	.LVL9:
 473:Drivers/STM32L4xx_HAL_Driver/Src/stm32l4xx_hal_dac.c **** 
 168              		.loc 1 473 3 view .LVU36
 473:Drivers/STM32L4xx_HAL_Driver/Src/stm32l4xx_hal_dac.c **** 
 169              		.loc 1 473 19 is_stmt 0 view .LVU37
 170 000e 0020     		movs	r0, #0
 171 0010 2061     		str	r0, [r4, #16]
 476:Drivers/STM32L4xx_HAL_Driver/Src/stm32l4xx_hal_dac.c **** 
 172              		.loc 1 476 3 is_stmt 1 view .LVU38
 476:Drivers/STM32L4xx_HAL_Driver/Src/stm32l4xx_hal_dac.c **** 
 173              		.loc 1 476 15 is_stmt 0 view .LVU39
 174 0012 2071     		strb	r0, [r4, #4]
 479:Drivers/STM32L4xx_HAL_Driver/Src/stm32l4xx_hal_dac.c **** 
 175              		.loc 1 479 3 is_stmt 1 view .LVU40
 479:Drivers/STM32L4xx_HAL_Driver/Src/stm32l4xx_hal_dac.c **** 
 176              		.loc 1 479 3 view .LVU41
 177 0014 6071     		strb	r0, [r4, #5]
 479:Drivers/STM32L4xx_HAL_Driver/Src/stm32l4xx_hal_dac.c **** 
 178              		.loc 1 479 3 view .LVU42
 482:Drivers/STM32L4xx_HAL_Driver/Src/stm32l4xx_hal_dac.c **** }
 179              		.loc 1 482 3 view .LVU43
 483:Drivers/STM32L4xx_HAL_Driver/Src/stm32l4xx_hal_dac.c **** 
 180              		.loc 1 483 1 is_stmt 0 view .LVU44
 181 0016 10BD     		pop	{r4, pc}
 182              	.LVL10:
 183              	.L14:
 184              	.LCFI3:
 185              		.cfi_def_cfa_offset 0
 186              		.cfi_restore 4
 187              		.cfi_restore 14
 451:Drivers/STM32L4xx_HAL_Driver/Src/stm32l4xx_hal_dac.c ****   }
 188              		.loc 1 451 12 view .LVU45
 189 0018 0120     		movs	r0, #1
 190              	.LVL11:
 483:Drivers/STM32L4xx_HAL_Driver/Src/stm32l4xx_hal_dac.c **** 
 191              		.loc 1 483 1 view .LVU46
 192 001a 7047     		bx	lr
ARM GAS  /tmp/cc4ENhcr.s 			page 14


 193              		.cfi_endproc
 194              	.LFE133:
 196              		.section	.text.HAL_DAC_Start,"ax",%progbits
 197              		.align	1
 198              		.global	HAL_DAC_Start
 199              		.syntax unified
 200              		.thumb
 201              		.thumb_func
 202              		.fpu fpv4-sp-d16
 204              	HAL_DAC_Start:
 205              	.LVL12:
 206              	.LFB136:
 516:Drivers/STM32L4xx_HAL_Driver/Src/stm32l4xx_hal_dac.c **** 
 517:Drivers/STM32L4xx_HAL_Driver/Src/stm32l4xx_hal_dac.c **** /**
 518:Drivers/STM32L4xx_HAL_Driver/Src/stm32l4xx_hal_dac.c ****   * @}
 519:Drivers/STM32L4xx_HAL_Driver/Src/stm32l4xx_hal_dac.c ****   */
 520:Drivers/STM32L4xx_HAL_Driver/Src/stm32l4xx_hal_dac.c **** 
 521:Drivers/STM32L4xx_HAL_Driver/Src/stm32l4xx_hal_dac.c **** /** @defgroup DAC_Exported_Functions_Group2 IO operation functions
 522:Drivers/STM32L4xx_HAL_Driver/Src/stm32l4xx_hal_dac.c ****  *  @brief    IO operation functions
 523:Drivers/STM32L4xx_HAL_Driver/Src/stm32l4xx_hal_dac.c ****  *
 524:Drivers/STM32L4xx_HAL_Driver/Src/stm32l4xx_hal_dac.c **** @verbatim
 525:Drivers/STM32L4xx_HAL_Driver/Src/stm32l4xx_hal_dac.c ****   ==============================================================================
 526:Drivers/STM32L4xx_HAL_Driver/Src/stm32l4xx_hal_dac.c ****              ##### IO operation functions #####
 527:Drivers/STM32L4xx_HAL_Driver/Src/stm32l4xx_hal_dac.c ****   ==============================================================================
 528:Drivers/STM32L4xx_HAL_Driver/Src/stm32l4xx_hal_dac.c ****     [..]  This section provides functions allowing to:
 529:Drivers/STM32L4xx_HAL_Driver/Src/stm32l4xx_hal_dac.c ****       (+) Start conversion.
 530:Drivers/STM32L4xx_HAL_Driver/Src/stm32l4xx_hal_dac.c ****       (+) Stop conversion.
 531:Drivers/STM32L4xx_HAL_Driver/Src/stm32l4xx_hal_dac.c ****       (+) Start conversion and enable DMA transfer.
 532:Drivers/STM32L4xx_HAL_Driver/Src/stm32l4xx_hal_dac.c ****       (+) Stop conversion and disable DMA transfer.
 533:Drivers/STM32L4xx_HAL_Driver/Src/stm32l4xx_hal_dac.c ****       (+) Get result of conversion.
 534:Drivers/STM32L4xx_HAL_Driver/Src/stm32l4xx_hal_dac.c **** 
 535:Drivers/STM32L4xx_HAL_Driver/Src/stm32l4xx_hal_dac.c **** @endverbatim
 536:Drivers/STM32L4xx_HAL_Driver/Src/stm32l4xx_hal_dac.c ****   * @{
 537:Drivers/STM32L4xx_HAL_Driver/Src/stm32l4xx_hal_dac.c ****   */
 538:Drivers/STM32L4xx_HAL_Driver/Src/stm32l4xx_hal_dac.c **** 
 539:Drivers/STM32L4xx_HAL_Driver/Src/stm32l4xx_hal_dac.c **** /**
 540:Drivers/STM32L4xx_HAL_Driver/Src/stm32l4xx_hal_dac.c ****   * @brief  Enables DAC and starts conversion of channel.
 541:Drivers/STM32L4xx_HAL_Driver/Src/stm32l4xx_hal_dac.c ****   * @param  hdac pointer to a DAC_HandleTypeDef structure that contains
 542:Drivers/STM32L4xx_HAL_Driver/Src/stm32l4xx_hal_dac.c ****   *         the configuration information for the specified DAC.
 543:Drivers/STM32L4xx_HAL_Driver/Src/stm32l4xx_hal_dac.c ****   * @param  Channel The selected DAC channel.
 544:Drivers/STM32L4xx_HAL_Driver/Src/stm32l4xx_hal_dac.c ****   *          This parameter can be one of the following values:
 545:Drivers/STM32L4xx_HAL_Driver/Src/stm32l4xx_hal_dac.c ****   *            @arg DAC_CHANNEL_1: DAC Channel1 selected
 546:Drivers/STM32L4xx_HAL_Driver/Src/stm32l4xx_hal_dac.c ****   *            @arg DAC_CHANNEL_2: DAC Channel2 selected (when supported)
 547:Drivers/STM32L4xx_HAL_Driver/Src/stm32l4xx_hal_dac.c ****   * @retval HAL status
 548:Drivers/STM32L4xx_HAL_Driver/Src/stm32l4xx_hal_dac.c ****   */
 549:Drivers/STM32L4xx_HAL_Driver/Src/stm32l4xx_hal_dac.c **** HAL_StatusTypeDef HAL_DAC_Start(DAC_HandleTypeDef *hdac, uint32_t Channel)
 550:Drivers/STM32L4xx_HAL_Driver/Src/stm32l4xx_hal_dac.c **** {
 207              		.loc 1 550 1 is_stmt 1 view -0
 208              		.cfi_startproc
 209              		@ args = 0, pretend = 0, frame = 0
 210              		@ frame_needed = 0, uses_anonymous_args = 0
 211              		@ link register save eliminated.
 551:Drivers/STM32L4xx_HAL_Driver/Src/stm32l4xx_hal_dac.c ****   /* Check the parameters */
 552:Drivers/STM32L4xx_HAL_Driver/Src/stm32l4xx_hal_dac.c ****   assert_param(IS_DAC_CHANNEL(Channel));
 212              		.loc 1 552 3 view .LVU48
 553:Drivers/STM32L4xx_HAL_Driver/Src/stm32l4xx_hal_dac.c **** 
 554:Drivers/STM32L4xx_HAL_Driver/Src/stm32l4xx_hal_dac.c ****   /* Process locked */
ARM GAS  /tmp/cc4ENhcr.s 			page 15


 555:Drivers/STM32L4xx_HAL_Driver/Src/stm32l4xx_hal_dac.c ****   __HAL_LOCK(hdac);
 213              		.loc 1 555 3 view .LVU49
 214              		.loc 1 555 3 view .LVU50
 215 0000 4379     		ldrb	r3, [r0, #5]	@ zero_extendqisi2
 216 0002 012B     		cmp	r3, #1
 217 0004 2AD0     		beq	.L23
 550:Drivers/STM32L4xx_HAL_Driver/Src/stm32l4xx_hal_dac.c ****   /* Check the parameters */
 218              		.loc 1 550 1 is_stmt 0 discriminator 2 view .LVU51
 219 0006 30B4     		push	{r4, r5}
 220              	.LCFI4:
 221              		.cfi_def_cfa_offset 8
 222              		.cfi_offset 4, -8
 223              		.cfi_offset 5, -4
 224              		.loc 1 555 3 is_stmt 1 discriminator 2 view .LVU52
 225 0008 0123     		movs	r3, #1
 226 000a 4371     		strb	r3, [r0, #5]
 227              		.loc 1 555 3 discriminator 2 view .LVU53
 556:Drivers/STM32L4xx_HAL_Driver/Src/stm32l4xx_hal_dac.c **** 
 557:Drivers/STM32L4xx_HAL_Driver/Src/stm32l4xx_hal_dac.c ****   /* Change DAC state */
 558:Drivers/STM32L4xx_HAL_Driver/Src/stm32l4xx_hal_dac.c ****   hdac->State = HAL_DAC_STATE_BUSY;
 228              		.loc 1 558 3 discriminator 2 view .LVU54
 229              		.loc 1 558 15 is_stmt 0 discriminator 2 view .LVU55
 230 000c 0222     		movs	r2, #2
 231 000e 0271     		strb	r2, [r0, #4]
 559:Drivers/STM32L4xx_HAL_Driver/Src/stm32l4xx_hal_dac.c **** 
 560:Drivers/STM32L4xx_HAL_Driver/Src/stm32l4xx_hal_dac.c ****   /* Enable the Peripheral */
 561:Drivers/STM32L4xx_HAL_Driver/Src/stm32l4xx_hal_dac.c ****   __HAL_DAC_ENABLE(hdac, Channel);
 232              		.loc 1 561 3 is_stmt 1 discriminator 2 view .LVU56
 233 0010 0468     		ldr	r4, [r0]
 234 0012 2268     		ldr	r2, [r4]
 235 0014 01F01005 		and	r5, r1, #16
 236 0018 AB40     		lsls	r3, r3, r5
 237 001a 1343     		orrs	r3, r3, r2
 238 001c 2360     		str	r3, [r4]
 562:Drivers/STM32L4xx_HAL_Driver/Src/stm32l4xx_hal_dac.c **** 
 563:Drivers/STM32L4xx_HAL_Driver/Src/stm32l4xx_hal_dac.c **** #if defined (STM32L4P5xx) || defined (STM32L4Q5xx) || defined (STM32L4R5xx) || defined (STM32L4R7xx
 564:Drivers/STM32L4xx_HAL_Driver/Src/stm32l4xx_hal_dac.c ****   if (Channel == DAC_CHANNEL_1)
 565:Drivers/STM32L4xx_HAL_Driver/Src/stm32l4xx_hal_dac.c ****   {
 566:Drivers/STM32L4xx_HAL_Driver/Src/stm32l4xx_hal_dac.c ****     /* Check if software trigger enabled */
 567:Drivers/STM32L4xx_HAL_Driver/Src/stm32l4xx_hal_dac.c ****     if ((hdac->Instance->CR & (DAC_CR_TEN1 | DAC_CR_TSEL1)) == DAC_TRIGGER_SOFTWARE)
 568:Drivers/STM32L4xx_HAL_Driver/Src/stm32l4xx_hal_dac.c ****     {
 569:Drivers/STM32L4xx_HAL_Driver/Src/stm32l4xx_hal_dac.c ****       /* Enable the selected DAC software conversion */
 570:Drivers/STM32L4xx_HAL_Driver/Src/stm32l4xx_hal_dac.c ****       SET_BIT(hdac->Instance->SWTRIGR, DAC_SWTRIGR_SWTRIG1);
 571:Drivers/STM32L4xx_HAL_Driver/Src/stm32l4xx_hal_dac.c ****     }
 572:Drivers/STM32L4xx_HAL_Driver/Src/stm32l4xx_hal_dac.c ****   }
 573:Drivers/STM32L4xx_HAL_Driver/Src/stm32l4xx_hal_dac.c ****   else
 574:Drivers/STM32L4xx_HAL_Driver/Src/stm32l4xx_hal_dac.c ****   {
 575:Drivers/STM32L4xx_HAL_Driver/Src/stm32l4xx_hal_dac.c ****     /* Check if software trigger enabled */
 576:Drivers/STM32L4xx_HAL_Driver/Src/stm32l4xx_hal_dac.c ****     if ((hdac->Instance->CR & (DAC_CR_TEN2 | DAC_CR_TSEL2)) == (DAC_TRIGGER_SOFTWARE << (Channel & 
 577:Drivers/STM32L4xx_HAL_Driver/Src/stm32l4xx_hal_dac.c ****     {
 578:Drivers/STM32L4xx_HAL_Driver/Src/stm32l4xx_hal_dac.c ****       /* Enable the selected DAC software conversion*/
 579:Drivers/STM32L4xx_HAL_Driver/Src/stm32l4xx_hal_dac.c ****       SET_BIT(hdac->Instance->SWTRIGR, DAC_SWTRIGR_SWTRIG2);
 580:Drivers/STM32L4xx_HAL_Driver/Src/stm32l4xx_hal_dac.c ****     }
 581:Drivers/STM32L4xx_HAL_Driver/Src/stm32l4xx_hal_dac.c ****   }
 582:Drivers/STM32L4xx_HAL_Driver/Src/stm32l4xx_hal_dac.c **** 
 583:Drivers/STM32L4xx_HAL_Driver/Src/stm32l4xx_hal_dac.c **** #endif /* STM32L4P5xx STM32L4Q5xx STM32L4R5xx STM32L4R7xx STM32L4R9xx STM32L4S5xx STM32L4S7xx STM32
 584:Drivers/STM32L4xx_HAL_Driver/Src/stm32l4xx_hal_dac.c **** 
ARM GAS  /tmp/cc4ENhcr.s 			page 16


 585:Drivers/STM32L4xx_HAL_Driver/Src/stm32l4xx_hal_dac.c **** #if defined (STM32L431xx) || defined (STM32L432xx) || defined (STM32L433xx) || defined (STM32L442xx
 586:Drivers/STM32L4xx_HAL_Driver/Src/stm32l4xx_hal_dac.c ****     defined (STM32L471xx) || defined (STM32L475xx) || defined (STM32L476xx) || defined (STM32L485xx
 587:Drivers/STM32L4xx_HAL_Driver/Src/stm32l4xx_hal_dac.c ****   if(Channel == DAC_CHANNEL_1)
 239              		.loc 1 587 3 discriminator 2 view .LVU57
 240              		.loc 1 587 5 is_stmt 0 discriminator 2 view .LVU58
 241 001e 89B9     		cbnz	r1, .L21
 588:Drivers/STM32L4xx_HAL_Driver/Src/stm32l4xx_hal_dac.c ****   {
 589:Drivers/STM32L4xx_HAL_Driver/Src/stm32l4xx_hal_dac.c ****     /* Check if software trigger enabled */
 590:Drivers/STM32L4xx_HAL_Driver/Src/stm32l4xx_hal_dac.c ****     if ((hdac->Instance->CR & (DAC_CR_TEN1 | DAC_CR_TSEL1)) == DAC_CR_TEN1)
 242              		.loc 1 590 5 is_stmt 1 view .LVU59
 243              		.loc 1 590 14 is_stmt 0 view .LVU60
 244 0020 0268     		ldr	r2, [r0]
 245              		.loc 1 590 24 view .LVU61
 246 0022 1368     		ldr	r3, [r2]
 247              		.loc 1 590 29 view .LVU62
 248 0024 03F03C03 		and	r3, r3, #60
 249              		.loc 1 590 8 view .LVU63
 250 0028 042B     		cmp	r3, #4
 251 002a 06D0     		beq	.L28
 252              	.L22:
 591:Drivers/STM32L4xx_HAL_Driver/Src/stm32l4xx_hal_dac.c ****     {
 592:Drivers/STM32L4xx_HAL_Driver/Src/stm32l4xx_hal_dac.c ****       /* Enable the selected DAC software conversion */
 593:Drivers/STM32L4xx_HAL_Driver/Src/stm32l4xx_hal_dac.c ****       SET_BIT(hdac->Instance->SWTRIGR, DAC_SWTRIGR_SWTRIG1);
 594:Drivers/STM32L4xx_HAL_Driver/Src/stm32l4xx_hal_dac.c ****     }
 595:Drivers/STM32L4xx_HAL_Driver/Src/stm32l4xx_hal_dac.c ****   }
 596:Drivers/STM32L4xx_HAL_Driver/Src/stm32l4xx_hal_dac.c ****   else
 597:Drivers/STM32L4xx_HAL_Driver/Src/stm32l4xx_hal_dac.c ****   {
 598:Drivers/STM32L4xx_HAL_Driver/Src/stm32l4xx_hal_dac.c ****     /* Check if software trigger enabled */
 599:Drivers/STM32L4xx_HAL_Driver/Src/stm32l4xx_hal_dac.c ****     if ((hdac->Instance->CR & (DAC_CR_TEN2 | DAC_CR_TSEL2)) == DAC_CR_TEN2)
 600:Drivers/STM32L4xx_HAL_Driver/Src/stm32l4xx_hal_dac.c ****     {
 601:Drivers/STM32L4xx_HAL_Driver/Src/stm32l4xx_hal_dac.c ****       /* Enable the selected DAC software conversion*/
 602:Drivers/STM32L4xx_HAL_Driver/Src/stm32l4xx_hal_dac.c ****       SET_BIT(hdac->Instance->SWTRIGR, DAC_SWTRIGR_SWTRIG2);
 603:Drivers/STM32L4xx_HAL_Driver/Src/stm32l4xx_hal_dac.c ****     }
 604:Drivers/STM32L4xx_HAL_Driver/Src/stm32l4xx_hal_dac.c ****   }
 605:Drivers/STM32L4xx_HAL_Driver/Src/stm32l4xx_hal_dac.c **** #endif  /* STM32L431xx STM32L432xx STM32L433xx STM32L442xx STM32L443xx                         */
 606:Drivers/STM32L4xx_HAL_Driver/Src/stm32l4xx_hal_dac.c ****         /* STM32L471xx STM32L475xx STM32L476xx STM32L485xx STM32L486xx STM32L496xx STM32L4A6xx */
 607:Drivers/STM32L4xx_HAL_Driver/Src/stm32l4xx_hal_dac.c **** 
 608:Drivers/STM32L4xx_HAL_Driver/Src/stm32l4xx_hal_dac.c **** 
 609:Drivers/STM32L4xx_HAL_Driver/Src/stm32l4xx_hal_dac.c **** #if defined (STM32L451xx) || defined (STM32L452xx) || defined (STM32L462xx)
 610:Drivers/STM32L4xx_HAL_Driver/Src/stm32l4xx_hal_dac.c ****   /* Check if software trigger enabled */
 611:Drivers/STM32L4xx_HAL_Driver/Src/stm32l4xx_hal_dac.c ****   if((hdac->Instance->CR & (DAC_CR_TEN1 | DAC_CR_TSEL1)) == (DAC_CR_TEN1 | DAC_CR_TSEL1))
 612:Drivers/STM32L4xx_HAL_Driver/Src/stm32l4xx_hal_dac.c ****   {
 613:Drivers/STM32L4xx_HAL_Driver/Src/stm32l4xx_hal_dac.c ****     /* Enable the selected DAC software conversion */
 614:Drivers/STM32L4xx_HAL_Driver/Src/stm32l4xx_hal_dac.c ****     SET_BIT(hdac->Instance->SWTRIGR, DAC_SWTRIGR_SWTRIG1);
 615:Drivers/STM32L4xx_HAL_Driver/Src/stm32l4xx_hal_dac.c ****   }
 616:Drivers/STM32L4xx_HAL_Driver/Src/stm32l4xx_hal_dac.c **** #endif /* STM32L451xx STM32L452xx STM32L462xx */
 617:Drivers/STM32L4xx_HAL_Driver/Src/stm32l4xx_hal_dac.c ****   /* Change DAC state */
 618:Drivers/STM32L4xx_HAL_Driver/Src/stm32l4xx_hal_dac.c ****   hdac->State = HAL_DAC_STATE_READY;
 253              		.loc 1 618 3 is_stmt 1 view .LVU64
 254              		.loc 1 618 15 is_stmt 0 view .LVU65
 255 002c 0123     		movs	r3, #1
 256 002e 0371     		strb	r3, [r0, #4]
 619:Drivers/STM32L4xx_HAL_Driver/Src/stm32l4xx_hal_dac.c **** 
 620:Drivers/STM32L4xx_HAL_Driver/Src/stm32l4xx_hal_dac.c ****   /* Process unlocked */
 621:Drivers/STM32L4xx_HAL_Driver/Src/stm32l4xx_hal_dac.c ****   __HAL_UNLOCK(hdac);
 257              		.loc 1 621 3 is_stmt 1 view .LVU66
 258              		.loc 1 621 3 view .LVU67
ARM GAS  /tmp/cc4ENhcr.s 			page 17


 259 0030 0023     		movs	r3, #0
 260 0032 4371     		strb	r3, [r0, #5]
 261              		.loc 1 621 3 view .LVU68
 622:Drivers/STM32L4xx_HAL_Driver/Src/stm32l4xx_hal_dac.c **** 
 623:Drivers/STM32L4xx_HAL_Driver/Src/stm32l4xx_hal_dac.c ****   /* Return function status */
 624:Drivers/STM32L4xx_HAL_Driver/Src/stm32l4xx_hal_dac.c ****   return HAL_OK;
 262              		.loc 1 624 3 view .LVU69
 263              		.loc 1 624 10 is_stmt 0 view .LVU70
 264 0034 1846     		mov	r0, r3
 265              	.LVL13:
 625:Drivers/STM32L4xx_HAL_Driver/Src/stm32l4xx_hal_dac.c **** }
 266              		.loc 1 625 1 view .LVU71
 267 0036 30BC     		pop	{r4, r5}
 268              	.LCFI5:
 269              		.cfi_remember_state
 270              		.cfi_restore 5
 271              		.cfi_restore 4
 272              		.cfi_def_cfa_offset 0
 273 0038 7047     		bx	lr
 274              	.LVL14:
 275              	.L28:
 276              	.LCFI6:
 277              		.cfi_restore_state
 593:Drivers/STM32L4xx_HAL_Driver/Src/stm32l4xx_hal_dac.c ****     }
 278              		.loc 1 593 7 is_stmt 1 view .LVU72
 279 003a 5368     		ldr	r3, [r2, #4]
 280 003c 43F00103 		orr	r3, r3, #1
 281 0040 5360     		str	r3, [r2, #4]
 282 0042 F3E7     		b	.L22
 283              	.L21:
 599:Drivers/STM32L4xx_HAL_Driver/Src/stm32l4xx_hal_dac.c ****     {
 284              		.loc 1 599 5 view .LVU73
 599:Drivers/STM32L4xx_HAL_Driver/Src/stm32l4xx_hal_dac.c ****     {
 285              		.loc 1 599 14 is_stmt 0 view .LVU74
 286 0044 0268     		ldr	r2, [r0]
 599:Drivers/STM32L4xx_HAL_Driver/Src/stm32l4xx_hal_dac.c ****     {
 287              		.loc 1 599 24 view .LVU75
 288 0046 1368     		ldr	r3, [r2]
 599:Drivers/STM32L4xx_HAL_Driver/Src/stm32l4xx_hal_dac.c ****     {
 289              		.loc 1 599 29 view .LVU76
 290 0048 03F47013 		and	r3, r3, #3932160
 599:Drivers/STM32L4xx_HAL_Driver/Src/stm32l4xx_hal_dac.c ****     {
 291              		.loc 1 599 8 view .LVU77
 292 004c B3F5802F 		cmp	r3, #262144
 293 0050 ECD1     		bne	.L22
 602:Drivers/STM32L4xx_HAL_Driver/Src/stm32l4xx_hal_dac.c ****     }
 294              		.loc 1 602 7 is_stmt 1 view .LVU78
 295 0052 5368     		ldr	r3, [r2, #4]
 296 0054 43F00203 		orr	r3, r3, #2
 297 0058 5360     		str	r3, [r2, #4]
 298 005a E7E7     		b	.L22
 299              	.L23:
 300              	.LCFI7:
 301              		.cfi_def_cfa_offset 0
 302              		.cfi_restore 4
 303              		.cfi_restore 5
 555:Drivers/STM32L4xx_HAL_Driver/Src/stm32l4xx_hal_dac.c **** 
ARM GAS  /tmp/cc4ENhcr.s 			page 18


 304              		.loc 1 555 3 is_stmt 0 view .LVU79
 305 005c 0220     		movs	r0, #2
 306              	.LVL15:
 307              		.loc 1 625 1 view .LVU80
 308 005e 7047     		bx	lr
 309              		.cfi_endproc
 310              	.LFE136:
 312              		.section	.text.HAL_DAC_Stop,"ax",%progbits
 313              		.align	1
 314              		.global	HAL_DAC_Stop
 315              		.syntax unified
 316              		.thumb
 317              		.thumb_func
 318              		.fpu fpv4-sp-d16
 320              	HAL_DAC_Stop:
 321              	.LVL16:
 322              	.LFB137:
 626:Drivers/STM32L4xx_HAL_Driver/Src/stm32l4xx_hal_dac.c **** 
 627:Drivers/STM32L4xx_HAL_Driver/Src/stm32l4xx_hal_dac.c **** /**
 628:Drivers/STM32L4xx_HAL_Driver/Src/stm32l4xx_hal_dac.c ****   * @brief  Disables DAC and stop conversion of channel.
 629:Drivers/STM32L4xx_HAL_Driver/Src/stm32l4xx_hal_dac.c ****   * @param  hdac pointer to a DAC_HandleTypeDef structure that contains
 630:Drivers/STM32L4xx_HAL_Driver/Src/stm32l4xx_hal_dac.c ****   *         the configuration information for the specified DAC.
 631:Drivers/STM32L4xx_HAL_Driver/Src/stm32l4xx_hal_dac.c ****   * @param  Channel The selected DAC channel.
 632:Drivers/STM32L4xx_HAL_Driver/Src/stm32l4xx_hal_dac.c ****   *          This parameter can be one of the following values:
 633:Drivers/STM32L4xx_HAL_Driver/Src/stm32l4xx_hal_dac.c ****   *            @arg DAC_CHANNEL_1: DAC Channel1 selected
 634:Drivers/STM32L4xx_HAL_Driver/Src/stm32l4xx_hal_dac.c ****   *            @arg DAC_CHANNEL_2: DAC Channel2 selected
 635:Drivers/STM32L4xx_HAL_Driver/Src/stm32l4xx_hal_dac.c ****   * @retval HAL status
 636:Drivers/STM32L4xx_HAL_Driver/Src/stm32l4xx_hal_dac.c ****   */
 637:Drivers/STM32L4xx_HAL_Driver/Src/stm32l4xx_hal_dac.c **** HAL_StatusTypeDef HAL_DAC_Stop(DAC_HandleTypeDef *hdac, uint32_t Channel)
 638:Drivers/STM32L4xx_HAL_Driver/Src/stm32l4xx_hal_dac.c **** {
 323              		.loc 1 638 1 is_stmt 1 view -0
 324              		.cfi_startproc
 325              		@ args = 0, pretend = 0, frame = 0
 326              		@ frame_needed = 0, uses_anonymous_args = 0
 327              		@ link register save eliminated.
 328              		.loc 1 638 1 is_stmt 0 view .LVU82
 329 0000 10B4     		push	{r4}
 330              	.LCFI8:
 331              		.cfi_def_cfa_offset 4
 332              		.cfi_offset 4, -4
 639:Drivers/STM32L4xx_HAL_Driver/Src/stm32l4xx_hal_dac.c ****   /* Check the parameters */
 640:Drivers/STM32L4xx_HAL_Driver/Src/stm32l4xx_hal_dac.c ****   assert_param(IS_DAC_CHANNEL(Channel));
 333              		.loc 1 640 3 is_stmt 1 view .LVU83
 641:Drivers/STM32L4xx_HAL_Driver/Src/stm32l4xx_hal_dac.c **** 
 642:Drivers/STM32L4xx_HAL_Driver/Src/stm32l4xx_hal_dac.c ****   /* Disable the Peripheral */
 643:Drivers/STM32L4xx_HAL_Driver/Src/stm32l4xx_hal_dac.c ****   __HAL_DAC_DISABLE(hdac, Channel);
 334              		.loc 1 643 3 view .LVU84
 335 0002 0468     		ldr	r4, [r0]
 336 0004 2368     		ldr	r3, [r4]
 337 0006 01F01001 		and	r1, r1, #16
 338              	.LVL17:
 339              		.loc 1 643 3 is_stmt 0 view .LVU85
 340 000a 0122     		movs	r2, #1
 341 000c 02FA01F1 		lsl	r1, r2, r1
 342 0010 23EA0101 		bic	r1, r3, r1
 343 0014 2160     		str	r1, [r4]
 644:Drivers/STM32L4xx_HAL_Driver/Src/stm32l4xx_hal_dac.c **** 
ARM GAS  /tmp/cc4ENhcr.s 			page 19


 645:Drivers/STM32L4xx_HAL_Driver/Src/stm32l4xx_hal_dac.c ****   /* Change DAC state */
 646:Drivers/STM32L4xx_HAL_Driver/Src/stm32l4xx_hal_dac.c ****   hdac->State = HAL_DAC_STATE_READY;
 344              		.loc 1 646 3 is_stmt 1 view .LVU86
 345              		.loc 1 646 15 is_stmt 0 view .LVU87
 346 0016 0271     		strb	r2, [r0, #4]
 647:Drivers/STM32L4xx_HAL_Driver/Src/stm32l4xx_hal_dac.c **** 
 648:Drivers/STM32L4xx_HAL_Driver/Src/stm32l4xx_hal_dac.c ****   /* Return function status */
 649:Drivers/STM32L4xx_HAL_Driver/Src/stm32l4xx_hal_dac.c ****   return HAL_OK;
 347              		.loc 1 649 3 is_stmt 1 view .LVU88
 650:Drivers/STM32L4xx_HAL_Driver/Src/stm32l4xx_hal_dac.c **** }
 348              		.loc 1 650 1 is_stmt 0 view .LVU89
 349 0018 0020     		movs	r0, #0
 350              	.LVL18:
 351              		.loc 1 650 1 view .LVU90
 352 001a 5DF8044B 		ldr	r4, [sp], #4
 353              	.LCFI9:
 354              		.cfi_restore 4
 355              		.cfi_def_cfa_offset 0
 356 001e 7047     		bx	lr
 357              		.cfi_endproc
 358              	.LFE137:
 360              		.section	.text.HAL_DAC_Start_DMA,"ax",%progbits
 361              		.align	1
 362              		.global	HAL_DAC_Start_DMA
 363              		.syntax unified
 364              		.thumb
 365              		.thumb_func
 366              		.fpu fpv4-sp-d16
 368              	HAL_DAC_Start_DMA:
 369              	.LVL19:
 370              	.LFB138:
 651:Drivers/STM32L4xx_HAL_Driver/Src/stm32l4xx_hal_dac.c **** 
 652:Drivers/STM32L4xx_HAL_Driver/Src/stm32l4xx_hal_dac.c **** #if defined (STM32L451xx) || defined (STM32L452xx) || defined (STM32L462xx)
 653:Drivers/STM32L4xx_HAL_Driver/Src/stm32l4xx_hal_dac.c **** /**
 654:Drivers/STM32L4xx_HAL_Driver/Src/stm32l4xx_hal_dac.c ****   * @brief  Enables DAC and starts conversion of channel.
 655:Drivers/STM32L4xx_HAL_Driver/Src/stm32l4xx_hal_dac.c ****   * @param  hdac pointer to a DAC_HandleTypeDef structure that contains
 656:Drivers/STM32L4xx_HAL_Driver/Src/stm32l4xx_hal_dac.c ****   *         the configuration information for the specified DAC.
 657:Drivers/STM32L4xx_HAL_Driver/Src/stm32l4xx_hal_dac.c ****   * @param  Channel The selected DAC channel.
 658:Drivers/STM32L4xx_HAL_Driver/Src/stm32l4xx_hal_dac.c ****   *          This parameter can be one of the following values:
 659:Drivers/STM32L4xx_HAL_Driver/Src/stm32l4xx_hal_dac.c ****   *            @arg DAC_CHANNEL_1: DAC Channel1 selected
 660:Drivers/STM32L4xx_HAL_Driver/Src/stm32l4xx_hal_dac.c ****   * @param  pData The destination peripheral Buffer address.
 661:Drivers/STM32L4xx_HAL_Driver/Src/stm32l4xx_hal_dac.c ****   * @param  Length The length of data to be transferred from memory to DAC peripheral
 662:Drivers/STM32L4xx_HAL_Driver/Src/stm32l4xx_hal_dac.c ****   * @param  Alignment Specifies the data alignment for DAC channel.
 663:Drivers/STM32L4xx_HAL_Driver/Src/stm32l4xx_hal_dac.c ****   *          This parameter can be one of the following values:
 664:Drivers/STM32L4xx_HAL_Driver/Src/stm32l4xx_hal_dac.c ****   *            @arg DAC_ALIGN_8B_R: 8bit right data alignment selected
 665:Drivers/STM32L4xx_HAL_Driver/Src/stm32l4xx_hal_dac.c ****   *            @arg DAC_ALIGN_12B_L: 12bit left data alignment selected
 666:Drivers/STM32L4xx_HAL_Driver/Src/stm32l4xx_hal_dac.c ****   *            @arg DAC_ALIGN_12B_R: 12bit right data alignment selected
 667:Drivers/STM32L4xx_HAL_Driver/Src/stm32l4xx_hal_dac.c ****   * @retval HAL status
 668:Drivers/STM32L4xx_HAL_Driver/Src/stm32l4xx_hal_dac.c ****   */
 669:Drivers/STM32L4xx_HAL_Driver/Src/stm32l4xx_hal_dac.c **** HAL_StatusTypeDef HAL_DAC_Start_DMA(DAC_HandleTypeDef *hdac, uint32_t Channel, uint32_t *pData, uin
 670:Drivers/STM32L4xx_HAL_Driver/Src/stm32l4xx_hal_dac.c ****                                     uint32_t Alignment)
 671:Drivers/STM32L4xx_HAL_Driver/Src/stm32l4xx_hal_dac.c **** {
 672:Drivers/STM32L4xx_HAL_Driver/Src/stm32l4xx_hal_dac.c ****   HAL_StatusTypeDef status;
 673:Drivers/STM32L4xx_HAL_Driver/Src/stm32l4xx_hal_dac.c ****   uint32_t tmpreg = 0U;
 674:Drivers/STM32L4xx_HAL_Driver/Src/stm32l4xx_hal_dac.c **** 
 675:Drivers/STM32L4xx_HAL_Driver/Src/stm32l4xx_hal_dac.c ****   /* Check the parameters */
 676:Drivers/STM32L4xx_HAL_Driver/Src/stm32l4xx_hal_dac.c ****   assert_param(IS_DAC_CHANNEL(Channel));
ARM GAS  /tmp/cc4ENhcr.s 			page 20


 677:Drivers/STM32L4xx_HAL_Driver/Src/stm32l4xx_hal_dac.c ****   assert_param(IS_DAC_ALIGN(Alignment));
 678:Drivers/STM32L4xx_HAL_Driver/Src/stm32l4xx_hal_dac.c **** 
 679:Drivers/STM32L4xx_HAL_Driver/Src/stm32l4xx_hal_dac.c ****   /* Process locked */
 680:Drivers/STM32L4xx_HAL_Driver/Src/stm32l4xx_hal_dac.c ****   __HAL_LOCK(hdac);
 681:Drivers/STM32L4xx_HAL_Driver/Src/stm32l4xx_hal_dac.c **** 
 682:Drivers/STM32L4xx_HAL_Driver/Src/stm32l4xx_hal_dac.c ****   /* Change DAC state */
 683:Drivers/STM32L4xx_HAL_Driver/Src/stm32l4xx_hal_dac.c ****   hdac->State = HAL_DAC_STATE_BUSY;
 684:Drivers/STM32L4xx_HAL_Driver/Src/stm32l4xx_hal_dac.c **** 
 685:Drivers/STM32L4xx_HAL_Driver/Src/stm32l4xx_hal_dac.c ****   /* Set the DMA transfer complete callback for channel1 */
 686:Drivers/STM32L4xx_HAL_Driver/Src/stm32l4xx_hal_dac.c ****   hdac->DMA_Handle1->XferCpltCallback = DAC_DMAConvCpltCh1;
 687:Drivers/STM32L4xx_HAL_Driver/Src/stm32l4xx_hal_dac.c **** 
 688:Drivers/STM32L4xx_HAL_Driver/Src/stm32l4xx_hal_dac.c ****   /* Set the DMA half transfer complete callback for channel1 */
 689:Drivers/STM32L4xx_HAL_Driver/Src/stm32l4xx_hal_dac.c ****   hdac->DMA_Handle1->XferHalfCpltCallback = DAC_DMAHalfConvCpltCh1;
 690:Drivers/STM32L4xx_HAL_Driver/Src/stm32l4xx_hal_dac.c **** 
 691:Drivers/STM32L4xx_HAL_Driver/Src/stm32l4xx_hal_dac.c ****   /* Set the DMA error callback for channel1 */
 692:Drivers/STM32L4xx_HAL_Driver/Src/stm32l4xx_hal_dac.c ****   hdac->DMA_Handle1->XferErrorCallback = DAC_DMAErrorCh1;
 693:Drivers/STM32L4xx_HAL_Driver/Src/stm32l4xx_hal_dac.c **** 
 694:Drivers/STM32L4xx_HAL_Driver/Src/stm32l4xx_hal_dac.c ****   /* Enable the selected DAC channel1 DMA request */
 695:Drivers/STM32L4xx_HAL_Driver/Src/stm32l4xx_hal_dac.c ****   SET_BIT(hdac->Instance->CR, DAC_CR_DMAEN1);
 696:Drivers/STM32L4xx_HAL_Driver/Src/stm32l4xx_hal_dac.c **** 
 697:Drivers/STM32L4xx_HAL_Driver/Src/stm32l4xx_hal_dac.c ****   /* Case of use of channel 1 */
 698:Drivers/STM32L4xx_HAL_Driver/Src/stm32l4xx_hal_dac.c ****   switch (Alignment)
 699:Drivers/STM32L4xx_HAL_Driver/Src/stm32l4xx_hal_dac.c ****   {
 700:Drivers/STM32L4xx_HAL_Driver/Src/stm32l4xx_hal_dac.c ****     case DAC_ALIGN_12B_R:
 701:Drivers/STM32L4xx_HAL_Driver/Src/stm32l4xx_hal_dac.c ****       /* Get DHR12R1 address */
 702:Drivers/STM32L4xx_HAL_Driver/Src/stm32l4xx_hal_dac.c ****       tmpreg = (uint32_t)&hdac->Instance->DHR12R1;
 703:Drivers/STM32L4xx_HAL_Driver/Src/stm32l4xx_hal_dac.c ****       break;
 704:Drivers/STM32L4xx_HAL_Driver/Src/stm32l4xx_hal_dac.c ****     case DAC_ALIGN_12B_L:
 705:Drivers/STM32L4xx_HAL_Driver/Src/stm32l4xx_hal_dac.c ****       /* Get DHR12L1 address */
 706:Drivers/STM32L4xx_HAL_Driver/Src/stm32l4xx_hal_dac.c ****       tmpreg = (uint32_t)&hdac->Instance->DHR12L1;
 707:Drivers/STM32L4xx_HAL_Driver/Src/stm32l4xx_hal_dac.c ****       break;
 708:Drivers/STM32L4xx_HAL_Driver/Src/stm32l4xx_hal_dac.c ****     case DAC_ALIGN_8B_R:
 709:Drivers/STM32L4xx_HAL_Driver/Src/stm32l4xx_hal_dac.c ****       /* Get DHR8R1 address */
 710:Drivers/STM32L4xx_HAL_Driver/Src/stm32l4xx_hal_dac.c ****       tmpreg = (uint32_t)&hdac->Instance->DHR8R1;
 711:Drivers/STM32L4xx_HAL_Driver/Src/stm32l4xx_hal_dac.c ****       break;
 712:Drivers/STM32L4xx_HAL_Driver/Src/stm32l4xx_hal_dac.c ****     default:
 713:Drivers/STM32L4xx_HAL_Driver/Src/stm32l4xx_hal_dac.c ****       break;
 714:Drivers/STM32L4xx_HAL_Driver/Src/stm32l4xx_hal_dac.c ****   }
 715:Drivers/STM32L4xx_HAL_Driver/Src/stm32l4xx_hal_dac.c **** 
 716:Drivers/STM32L4xx_HAL_Driver/Src/stm32l4xx_hal_dac.c ****   /* Enable the DMA channel */
 717:Drivers/STM32L4xx_HAL_Driver/Src/stm32l4xx_hal_dac.c ****   /* Enable the DAC DMA underrun interrupt */
 718:Drivers/STM32L4xx_HAL_Driver/Src/stm32l4xx_hal_dac.c ****   __HAL_DAC_ENABLE_IT(hdac, DAC_IT_DMAUDR1);
 719:Drivers/STM32L4xx_HAL_Driver/Src/stm32l4xx_hal_dac.c **** 
 720:Drivers/STM32L4xx_HAL_Driver/Src/stm32l4xx_hal_dac.c ****   /* Enable the DMA channel */
 721:Drivers/STM32L4xx_HAL_Driver/Src/stm32l4xx_hal_dac.c ****   status = HAL_DMA_Start_IT(hdac->DMA_Handle1, (uint32_t)pData, tmpreg, Length);
 722:Drivers/STM32L4xx_HAL_Driver/Src/stm32l4xx_hal_dac.c **** 
 723:Drivers/STM32L4xx_HAL_Driver/Src/stm32l4xx_hal_dac.c ****   /* Process Unlocked */
 724:Drivers/STM32L4xx_HAL_Driver/Src/stm32l4xx_hal_dac.c ****   __HAL_UNLOCK(hdac);
 725:Drivers/STM32L4xx_HAL_Driver/Src/stm32l4xx_hal_dac.c **** 
 726:Drivers/STM32L4xx_HAL_Driver/Src/stm32l4xx_hal_dac.c ****   if (status == HAL_OK)
 727:Drivers/STM32L4xx_HAL_Driver/Src/stm32l4xx_hal_dac.c ****   {
 728:Drivers/STM32L4xx_HAL_Driver/Src/stm32l4xx_hal_dac.c ****     /* Enable the Peripheral */
 729:Drivers/STM32L4xx_HAL_Driver/Src/stm32l4xx_hal_dac.c ****     __HAL_DAC_ENABLE(hdac, Channel);
 730:Drivers/STM32L4xx_HAL_Driver/Src/stm32l4xx_hal_dac.c ****   }
 731:Drivers/STM32L4xx_HAL_Driver/Src/stm32l4xx_hal_dac.c ****   else
 732:Drivers/STM32L4xx_HAL_Driver/Src/stm32l4xx_hal_dac.c ****   {
 733:Drivers/STM32L4xx_HAL_Driver/Src/stm32l4xx_hal_dac.c ****     hdac->ErrorCode |= HAL_DAC_ERROR_DMA;
ARM GAS  /tmp/cc4ENhcr.s 			page 21


 734:Drivers/STM32L4xx_HAL_Driver/Src/stm32l4xx_hal_dac.c ****   }
 735:Drivers/STM32L4xx_HAL_Driver/Src/stm32l4xx_hal_dac.c **** 
 736:Drivers/STM32L4xx_HAL_Driver/Src/stm32l4xx_hal_dac.c ****   /* Return function status */
 737:Drivers/STM32L4xx_HAL_Driver/Src/stm32l4xx_hal_dac.c ****   return status;
 738:Drivers/STM32L4xx_HAL_Driver/Src/stm32l4xx_hal_dac.c **** }
 739:Drivers/STM32L4xx_HAL_Driver/Src/stm32l4xx_hal_dac.c **** #endif /* STM32L451xx STM32L452xx STM32L462xx */
 740:Drivers/STM32L4xx_HAL_Driver/Src/stm32l4xx_hal_dac.c **** 
 741:Drivers/STM32L4xx_HAL_Driver/Src/stm32l4xx_hal_dac.c **** #if defined (STM32L431xx) || defined (STM32L432xx) || defined (STM32L433xx) || defined (STM32L442xx
 742:Drivers/STM32L4xx_HAL_Driver/Src/stm32l4xx_hal_dac.c ****     defined (STM32L471xx) || defined (STM32L475xx) || defined (STM32L476xx) || defined (STM32L485xx
 743:Drivers/STM32L4xx_HAL_Driver/Src/stm32l4xx_hal_dac.c ****     defined (STM32L4P5xx) || defined (STM32L4Q5xx) || \
 744:Drivers/STM32L4xx_HAL_Driver/Src/stm32l4xx_hal_dac.c ****     defined (STM32L4R5xx) || defined (STM32L4R7xx) || defined (STM32L4R9xx) || defined (STM32L4S5xx
 745:Drivers/STM32L4xx_HAL_Driver/Src/stm32l4xx_hal_dac.c **** 
 746:Drivers/STM32L4xx_HAL_Driver/Src/stm32l4xx_hal_dac.c **** /**
 747:Drivers/STM32L4xx_HAL_Driver/Src/stm32l4xx_hal_dac.c ****   * @brief  Enables DAC and starts conversion of channel.
 748:Drivers/STM32L4xx_HAL_Driver/Src/stm32l4xx_hal_dac.c ****   * @param  hdac pointer to a DAC_HandleTypeDef structure that contains
 749:Drivers/STM32L4xx_HAL_Driver/Src/stm32l4xx_hal_dac.c ****   *         the configuration information for the specified DAC.
 750:Drivers/STM32L4xx_HAL_Driver/Src/stm32l4xx_hal_dac.c ****   * @param  Channel The selected DAC channel.
 751:Drivers/STM32L4xx_HAL_Driver/Src/stm32l4xx_hal_dac.c ****   *          This parameter can be one of the following values:
 752:Drivers/STM32L4xx_HAL_Driver/Src/stm32l4xx_hal_dac.c ****   *            @arg DAC_CHANNEL_1: DAC Channel1 selected
 753:Drivers/STM32L4xx_HAL_Driver/Src/stm32l4xx_hal_dac.c ****   *            @arg DAC_CHANNEL_2: DAC Channel2 selected
 754:Drivers/STM32L4xx_HAL_Driver/Src/stm32l4xx_hal_dac.c ****   * @param  pData The destination peripheral Buffer address.
 755:Drivers/STM32L4xx_HAL_Driver/Src/stm32l4xx_hal_dac.c ****   * @param  Length The length of data to be transferred from memory to DAC peripheral
 756:Drivers/STM32L4xx_HAL_Driver/Src/stm32l4xx_hal_dac.c ****   * @param  Alignment Specifies the data alignment for DAC channel.
 757:Drivers/STM32L4xx_HAL_Driver/Src/stm32l4xx_hal_dac.c ****   *          This parameter can be one of the following values:
 758:Drivers/STM32L4xx_HAL_Driver/Src/stm32l4xx_hal_dac.c ****   *            @arg DAC_ALIGN_8B_R: 8bit right data alignment selected
 759:Drivers/STM32L4xx_HAL_Driver/Src/stm32l4xx_hal_dac.c ****   *            @arg DAC_ALIGN_12B_L: 12bit left data alignment selected
 760:Drivers/STM32L4xx_HAL_Driver/Src/stm32l4xx_hal_dac.c ****   *            @arg DAC_ALIGN_12B_R: 12bit right data alignment selected
 761:Drivers/STM32L4xx_HAL_Driver/Src/stm32l4xx_hal_dac.c ****   * @retval HAL status
 762:Drivers/STM32L4xx_HAL_Driver/Src/stm32l4xx_hal_dac.c ****   */
 763:Drivers/STM32L4xx_HAL_Driver/Src/stm32l4xx_hal_dac.c **** HAL_StatusTypeDef HAL_DAC_Start_DMA(DAC_HandleTypeDef *hdac, uint32_t Channel, uint32_t *pData, uin
 764:Drivers/STM32L4xx_HAL_Driver/Src/stm32l4xx_hal_dac.c ****                                     uint32_t Alignment)
 765:Drivers/STM32L4xx_HAL_Driver/Src/stm32l4xx_hal_dac.c **** {
 371              		.loc 1 765 1 is_stmt 1 view -0
 372              		.cfi_startproc
 373              		@ args = 4, pretend = 0, frame = 0
 374              		@ frame_needed = 0, uses_anonymous_args = 0
 375              		.loc 1 765 1 is_stmt 0 view .LVU92
 376 0000 70B5     		push	{r4, r5, r6, lr}
 377              	.LCFI10:
 378              		.cfi_def_cfa_offset 16
 379              		.cfi_offset 4, -16
 380              		.cfi_offset 5, -12
 381              		.cfi_offset 6, -8
 382              		.cfi_offset 14, -4
 383 0002 0446     		mov	r4, r0
 384 0004 0D46     		mov	r5, r1
 385 0006 1146     		mov	r1, r2
 386              	.LVL20:
 387              		.loc 1 765 1 view .LVU93
 388 0008 049A     		ldr	r2, [sp, #16]
 389              	.LVL21:
 766:Drivers/STM32L4xx_HAL_Driver/Src/stm32l4xx_hal_dac.c ****   HAL_StatusTypeDef status;
 390              		.loc 1 766 3 is_stmt 1 view .LVU94
 767:Drivers/STM32L4xx_HAL_Driver/Src/stm32l4xx_hal_dac.c ****   uint32_t tmpreg = 0U;
 391              		.loc 1 767 3 view .LVU95
 768:Drivers/STM32L4xx_HAL_Driver/Src/stm32l4xx_hal_dac.c **** 
 769:Drivers/STM32L4xx_HAL_Driver/Src/stm32l4xx_hal_dac.c ****   /* Check the parameters */
ARM GAS  /tmp/cc4ENhcr.s 			page 22


 770:Drivers/STM32L4xx_HAL_Driver/Src/stm32l4xx_hal_dac.c ****   assert_param(IS_DAC_CHANNEL(Channel));
 392              		.loc 1 770 3 view .LVU96
 771:Drivers/STM32L4xx_HAL_Driver/Src/stm32l4xx_hal_dac.c ****   assert_param(IS_DAC_ALIGN(Alignment));
 393              		.loc 1 771 3 view .LVU97
 772:Drivers/STM32L4xx_HAL_Driver/Src/stm32l4xx_hal_dac.c **** 
 773:Drivers/STM32L4xx_HAL_Driver/Src/stm32l4xx_hal_dac.c ****   /* Process locked */
 774:Drivers/STM32L4xx_HAL_Driver/Src/stm32l4xx_hal_dac.c ****   __HAL_LOCK(hdac);
 394              		.loc 1 774 3 view .LVU98
 395              		.loc 1 774 3 view .LVU99
 396 000a 4079     		ldrb	r0, [r0, #5]	@ zero_extendqisi2
 397              	.LVL22:
 398              		.loc 1 774 3 is_stmt 0 view .LVU100
 399 000c 0128     		cmp	r0, #1
 400 000e 66D0     		beq	.L42
 401              		.loc 1 774 3 is_stmt 1 discriminator 2 view .LVU101
 402 0010 0120     		movs	r0, #1
 403 0012 6071     		strb	r0, [r4, #5]
 404              		.loc 1 774 3 discriminator 2 view .LVU102
 775:Drivers/STM32L4xx_HAL_Driver/Src/stm32l4xx_hal_dac.c **** 
 776:Drivers/STM32L4xx_HAL_Driver/Src/stm32l4xx_hal_dac.c ****   /* Change DAC state */
 777:Drivers/STM32L4xx_HAL_Driver/Src/stm32l4xx_hal_dac.c ****   hdac->State = HAL_DAC_STATE_BUSY;
 405              		.loc 1 777 3 discriminator 2 view .LVU103
 406              		.loc 1 777 15 is_stmt 0 discriminator 2 view .LVU104
 407 0014 0220     		movs	r0, #2
 408 0016 2071     		strb	r0, [r4, #4]
 778:Drivers/STM32L4xx_HAL_Driver/Src/stm32l4xx_hal_dac.c **** 
 779:Drivers/STM32L4xx_HAL_Driver/Src/stm32l4xx_hal_dac.c ****   if (Channel == DAC_CHANNEL_1)
 409              		.loc 1 779 3 is_stmt 1 discriminator 2 view .LVU105
 410              		.loc 1 779 6 is_stmt 0 discriminator 2 view .LVU106
 411 0018 002D     		cmp	r5, #0
 412 001a 34D1     		bne	.L33
 780:Drivers/STM32L4xx_HAL_Driver/Src/stm32l4xx_hal_dac.c ****   {
 781:Drivers/STM32L4xx_HAL_Driver/Src/stm32l4xx_hal_dac.c ****     /* Set the DMA transfer complete callback for channel1 */
 782:Drivers/STM32L4xx_HAL_Driver/Src/stm32l4xx_hal_dac.c ****     hdac->DMA_Handle1->XferCpltCallback = DAC_DMAConvCpltCh1;
 413              		.loc 1 782 5 is_stmt 1 view .LVU107
 414              		.loc 1 782 9 is_stmt 0 view .LVU108
 415 001c A068     		ldr	r0, [r4, #8]
 416              		.loc 1 782 41 view .LVU109
 417 001e 314E     		ldr	r6, .L48
 418 0020 C662     		str	r6, [r0, #44]
 783:Drivers/STM32L4xx_HAL_Driver/Src/stm32l4xx_hal_dac.c **** 
 784:Drivers/STM32L4xx_HAL_Driver/Src/stm32l4xx_hal_dac.c ****     /* Set the DMA half transfer complete callback for channel1 */
 785:Drivers/STM32L4xx_HAL_Driver/Src/stm32l4xx_hal_dac.c ****     hdac->DMA_Handle1->XferHalfCpltCallback = DAC_DMAHalfConvCpltCh1;
 419              		.loc 1 785 5 is_stmt 1 view .LVU110
 420              		.loc 1 785 9 is_stmt 0 view .LVU111
 421 0022 A068     		ldr	r0, [r4, #8]
 422              		.loc 1 785 45 view .LVU112
 423 0024 304E     		ldr	r6, .L48+4
 424 0026 0663     		str	r6, [r0, #48]
 786:Drivers/STM32L4xx_HAL_Driver/Src/stm32l4xx_hal_dac.c **** 
 787:Drivers/STM32L4xx_HAL_Driver/Src/stm32l4xx_hal_dac.c ****     /* Set the DMA error callback for channel1 */
 788:Drivers/STM32L4xx_HAL_Driver/Src/stm32l4xx_hal_dac.c ****     hdac->DMA_Handle1->XferErrorCallback = DAC_DMAErrorCh1;
 425              		.loc 1 788 5 is_stmt 1 view .LVU113
 426              		.loc 1 788 9 is_stmt 0 view .LVU114
 427 0028 A068     		ldr	r0, [r4, #8]
 428              		.loc 1 788 42 view .LVU115
 429 002a 304E     		ldr	r6, .L48+8
ARM GAS  /tmp/cc4ENhcr.s 			page 23


 430 002c 4663     		str	r6, [r0, #52]
 789:Drivers/STM32L4xx_HAL_Driver/Src/stm32l4xx_hal_dac.c **** 
 790:Drivers/STM32L4xx_HAL_Driver/Src/stm32l4xx_hal_dac.c ****     /* Enable the selected DAC channel1 DMA request */
 791:Drivers/STM32L4xx_HAL_Driver/Src/stm32l4xx_hal_dac.c ****     SET_BIT(hdac->Instance->CR, DAC_CR_DMAEN1);
 431              		.loc 1 791 5 is_stmt 1 view .LVU116
 432 002e 2668     		ldr	r6, [r4]
 433 0030 3068     		ldr	r0, [r6]
 434 0032 40F48050 		orr	r0, r0, #4096
 435 0036 3060     		str	r0, [r6]
 792:Drivers/STM32L4xx_HAL_Driver/Src/stm32l4xx_hal_dac.c **** 
 793:Drivers/STM32L4xx_HAL_Driver/Src/stm32l4xx_hal_dac.c ****     /* Case of use of channel 1 */
 794:Drivers/STM32L4xx_HAL_Driver/Src/stm32l4xx_hal_dac.c ****     switch (Alignment)
 436              		.loc 1 794 5 view .LVU117
 437 0038 042A     		cmp	r2, #4
 438 003a 1ED0     		beq	.L34
 439 003c 082A     		cmp	r2, #8
 440 003e 1FD0     		beq	.L35
 441 0040 C2B1     		cbz	r2, .L46
 442 0042 2A46     		mov	r2, r5
 443              	.LVL23:
 444              	.L36:
 795:Drivers/STM32L4xx_HAL_Driver/Src/stm32l4xx_hal_dac.c ****     {
 796:Drivers/STM32L4xx_HAL_Driver/Src/stm32l4xx_hal_dac.c ****       case DAC_ALIGN_12B_R:
 797:Drivers/STM32L4xx_HAL_Driver/Src/stm32l4xx_hal_dac.c ****         /* Get DHR12R1 address */
 798:Drivers/STM32L4xx_HAL_Driver/Src/stm32l4xx_hal_dac.c ****         tmpreg = (uint32_t)&hdac->Instance->DHR12R1;
 799:Drivers/STM32L4xx_HAL_Driver/Src/stm32l4xx_hal_dac.c ****         break;
 800:Drivers/STM32L4xx_HAL_Driver/Src/stm32l4xx_hal_dac.c ****       case DAC_ALIGN_12B_L:
 801:Drivers/STM32L4xx_HAL_Driver/Src/stm32l4xx_hal_dac.c ****         /* Get DHR12L1 address */
 802:Drivers/STM32L4xx_HAL_Driver/Src/stm32l4xx_hal_dac.c ****         tmpreg = (uint32_t)&hdac->Instance->DHR12L1;
 803:Drivers/STM32L4xx_HAL_Driver/Src/stm32l4xx_hal_dac.c ****         break;
 804:Drivers/STM32L4xx_HAL_Driver/Src/stm32l4xx_hal_dac.c ****       case DAC_ALIGN_8B_R:
 805:Drivers/STM32L4xx_HAL_Driver/Src/stm32l4xx_hal_dac.c ****         /* Get DHR8R1 address */
 806:Drivers/STM32L4xx_HAL_Driver/Src/stm32l4xx_hal_dac.c ****         tmpreg = (uint32_t)&hdac->Instance->DHR8R1;
 807:Drivers/STM32L4xx_HAL_Driver/Src/stm32l4xx_hal_dac.c ****         break;
 808:Drivers/STM32L4xx_HAL_Driver/Src/stm32l4xx_hal_dac.c ****       default:
 809:Drivers/STM32L4xx_HAL_Driver/Src/stm32l4xx_hal_dac.c ****         break;
 810:Drivers/STM32L4xx_HAL_Driver/Src/stm32l4xx_hal_dac.c ****     }
 811:Drivers/STM32L4xx_HAL_Driver/Src/stm32l4xx_hal_dac.c ****   }
 812:Drivers/STM32L4xx_HAL_Driver/Src/stm32l4xx_hal_dac.c ****   else
 813:Drivers/STM32L4xx_HAL_Driver/Src/stm32l4xx_hal_dac.c ****   {
 814:Drivers/STM32L4xx_HAL_Driver/Src/stm32l4xx_hal_dac.c ****     /* Set the DMA transfer complete callback for channel2 */
 815:Drivers/STM32L4xx_HAL_Driver/Src/stm32l4xx_hal_dac.c ****     hdac->DMA_Handle2->XferCpltCallback = DAC_DMAConvCpltCh2;
 816:Drivers/STM32L4xx_HAL_Driver/Src/stm32l4xx_hal_dac.c **** 
 817:Drivers/STM32L4xx_HAL_Driver/Src/stm32l4xx_hal_dac.c ****     /* Set the DMA half transfer complete callback for channel2 */
 818:Drivers/STM32L4xx_HAL_Driver/Src/stm32l4xx_hal_dac.c ****     hdac->DMA_Handle2->XferHalfCpltCallback = DAC_DMAHalfConvCpltCh2;
 819:Drivers/STM32L4xx_HAL_Driver/Src/stm32l4xx_hal_dac.c **** 
 820:Drivers/STM32L4xx_HAL_Driver/Src/stm32l4xx_hal_dac.c ****     /* Set the DMA error callback for channel2 */
 821:Drivers/STM32L4xx_HAL_Driver/Src/stm32l4xx_hal_dac.c ****     hdac->DMA_Handle2->XferErrorCallback = DAC_DMAErrorCh2;
 822:Drivers/STM32L4xx_HAL_Driver/Src/stm32l4xx_hal_dac.c **** 
 823:Drivers/STM32L4xx_HAL_Driver/Src/stm32l4xx_hal_dac.c ****     /* Enable the selected DAC channel2 DMA request */
 824:Drivers/STM32L4xx_HAL_Driver/Src/stm32l4xx_hal_dac.c ****     SET_BIT(hdac->Instance->CR, DAC_CR_DMAEN2);
 825:Drivers/STM32L4xx_HAL_Driver/Src/stm32l4xx_hal_dac.c **** 
 826:Drivers/STM32L4xx_HAL_Driver/Src/stm32l4xx_hal_dac.c ****     /* Case of use of channel 2 */
 827:Drivers/STM32L4xx_HAL_Driver/Src/stm32l4xx_hal_dac.c ****     switch (Alignment)
 828:Drivers/STM32L4xx_HAL_Driver/Src/stm32l4xx_hal_dac.c ****     {
 829:Drivers/STM32L4xx_HAL_Driver/Src/stm32l4xx_hal_dac.c ****       case DAC_ALIGN_12B_R:
 830:Drivers/STM32L4xx_HAL_Driver/Src/stm32l4xx_hal_dac.c ****         /* Get DHR12R2 address */
ARM GAS  /tmp/cc4ENhcr.s 			page 24


 831:Drivers/STM32L4xx_HAL_Driver/Src/stm32l4xx_hal_dac.c ****         tmpreg = (uint32_t)&hdac->Instance->DHR12R2;
 832:Drivers/STM32L4xx_HAL_Driver/Src/stm32l4xx_hal_dac.c ****         break;
 833:Drivers/STM32L4xx_HAL_Driver/Src/stm32l4xx_hal_dac.c ****       case DAC_ALIGN_12B_L:
 834:Drivers/STM32L4xx_HAL_Driver/Src/stm32l4xx_hal_dac.c ****         /* Get DHR12L2 address */
 835:Drivers/STM32L4xx_HAL_Driver/Src/stm32l4xx_hal_dac.c ****         tmpreg = (uint32_t)&hdac->Instance->DHR12L2;
 836:Drivers/STM32L4xx_HAL_Driver/Src/stm32l4xx_hal_dac.c ****         break;
 837:Drivers/STM32L4xx_HAL_Driver/Src/stm32l4xx_hal_dac.c ****       case DAC_ALIGN_8B_R:
 838:Drivers/STM32L4xx_HAL_Driver/Src/stm32l4xx_hal_dac.c ****         /* Get DHR8R2 address */
 839:Drivers/STM32L4xx_HAL_Driver/Src/stm32l4xx_hal_dac.c ****         tmpreg = (uint32_t)&hdac->Instance->DHR8R2;
 840:Drivers/STM32L4xx_HAL_Driver/Src/stm32l4xx_hal_dac.c ****         break;
 841:Drivers/STM32L4xx_HAL_Driver/Src/stm32l4xx_hal_dac.c ****       default:
 842:Drivers/STM32L4xx_HAL_Driver/Src/stm32l4xx_hal_dac.c ****         break;
 843:Drivers/STM32L4xx_HAL_Driver/Src/stm32l4xx_hal_dac.c ****     }
 844:Drivers/STM32L4xx_HAL_Driver/Src/stm32l4xx_hal_dac.c ****   }
 845:Drivers/STM32L4xx_HAL_Driver/Src/stm32l4xx_hal_dac.c **** 
 846:Drivers/STM32L4xx_HAL_Driver/Src/stm32l4xx_hal_dac.c ****   /* Enable the DMA channel */
 847:Drivers/STM32L4xx_HAL_Driver/Src/stm32l4xx_hal_dac.c ****   if (Channel == DAC_CHANNEL_1)
 445              		.loc 1 847 3 view .LVU118
 446              		.loc 1 847 6 is_stmt 0 view .LVU119
 447 0044 002D     		cmp	r5, #0
 448 0046 3CD1     		bne	.L39
 848:Drivers/STM32L4xx_HAL_Driver/Src/stm32l4xx_hal_dac.c ****   {
 849:Drivers/STM32L4xx_HAL_Driver/Src/stm32l4xx_hal_dac.c ****     /* Enable the DAC DMA underrun interrupt */
 850:Drivers/STM32L4xx_HAL_Driver/Src/stm32l4xx_hal_dac.c ****     __HAL_DAC_ENABLE_IT(hdac, DAC_IT_DMAUDR1);
 449              		.loc 1 850 5 is_stmt 1 view .LVU120
 450 0048 2668     		ldr	r6, [r4]
 451 004a 3068     		ldr	r0, [r6]
 452 004c 40F40050 		orr	r0, r0, #8192
 453 0050 3060     		str	r0, [r6]
 851:Drivers/STM32L4xx_HAL_Driver/Src/stm32l4xx_hal_dac.c **** 
 852:Drivers/STM32L4xx_HAL_Driver/Src/stm32l4xx_hal_dac.c ****     /* Enable the DMA channel */
 853:Drivers/STM32L4xx_HAL_Driver/Src/stm32l4xx_hal_dac.c ****     status = HAL_DMA_Start_IT(hdac->DMA_Handle1, (uint32_t)pData, tmpreg, Length);
 454              		.loc 1 853 5 view .LVU121
 455              		.loc 1 853 14 is_stmt 0 view .LVU122
 456 0052 A068     		ldr	r0, [r4, #8]
 457 0054 FFF7FEFF 		bl	HAL_DMA_Start_IT
 458              	.LVL24:
 459              	.L40:
 854:Drivers/STM32L4xx_HAL_Driver/Src/stm32l4xx_hal_dac.c ****   }
 855:Drivers/STM32L4xx_HAL_Driver/Src/stm32l4xx_hal_dac.c ****   else
 856:Drivers/STM32L4xx_HAL_Driver/Src/stm32l4xx_hal_dac.c ****   {
 857:Drivers/STM32L4xx_HAL_Driver/Src/stm32l4xx_hal_dac.c ****     /* Enable the DAC DMA underrun interrupt */
 858:Drivers/STM32L4xx_HAL_Driver/Src/stm32l4xx_hal_dac.c ****     __HAL_DAC_ENABLE_IT(hdac, DAC_IT_DMAUDR2);
 859:Drivers/STM32L4xx_HAL_Driver/Src/stm32l4xx_hal_dac.c **** 
 860:Drivers/STM32L4xx_HAL_Driver/Src/stm32l4xx_hal_dac.c ****     /* Enable the DMA channel */
 861:Drivers/STM32L4xx_HAL_Driver/Src/stm32l4xx_hal_dac.c ****     status = HAL_DMA_Start_IT(hdac->DMA_Handle2, (uint32_t)pData, tmpreg, Length);
 862:Drivers/STM32L4xx_HAL_Driver/Src/stm32l4xx_hal_dac.c ****   }
 863:Drivers/STM32L4xx_HAL_Driver/Src/stm32l4xx_hal_dac.c **** 
 864:Drivers/STM32L4xx_HAL_Driver/Src/stm32l4xx_hal_dac.c ****   /* Process Unlocked */
 865:Drivers/STM32L4xx_HAL_Driver/Src/stm32l4xx_hal_dac.c ****   __HAL_UNLOCK(hdac);
 460              		.loc 1 865 3 is_stmt 1 view .LVU123
 461              		.loc 1 865 3 view .LVU124
 462 0058 0023     		movs	r3, #0
 463 005a 6371     		strb	r3, [r4, #5]
 464              		.loc 1 865 3 view .LVU125
 866:Drivers/STM32L4xx_HAL_Driver/Src/stm32l4xx_hal_dac.c **** 
 867:Drivers/STM32L4xx_HAL_Driver/Src/stm32l4xx_hal_dac.c ****   if (status == HAL_OK)
ARM GAS  /tmp/cc4ENhcr.s 			page 25


 465              		.loc 1 867 3 view .LVU126
 466              		.loc 1 867 6 is_stmt 0 view .LVU127
 467 005c 0028     		cmp	r0, #0
 468 005e 39D1     		bne	.L41
 868:Drivers/STM32L4xx_HAL_Driver/Src/stm32l4xx_hal_dac.c ****   {
 869:Drivers/STM32L4xx_HAL_Driver/Src/stm32l4xx_hal_dac.c ****     /* Enable the Peripheral */
 870:Drivers/STM32L4xx_HAL_Driver/Src/stm32l4xx_hal_dac.c ****     __HAL_DAC_ENABLE(hdac, Channel);
 469              		.loc 1 870 5 is_stmt 1 view .LVU128
 470 0060 2268     		ldr	r2, [r4]
 471 0062 1368     		ldr	r3, [r2]
 472 0064 05F01005 		and	r5, r5, #16
 473              	.LVL25:
 474              		.loc 1 870 5 is_stmt 0 view .LVU129
 475 0068 0121     		movs	r1, #1
 476 006a 01FA05F5 		lsl	r5, r1, r5
 477 006e 1D43     		orrs	r5, r5, r3
 478 0070 1560     		str	r5, [r2]
 479              	.LVL26:
 480              	.L32:
 871:Drivers/STM32L4xx_HAL_Driver/Src/stm32l4xx_hal_dac.c ****   }
 872:Drivers/STM32L4xx_HAL_Driver/Src/stm32l4xx_hal_dac.c ****   else
 873:Drivers/STM32L4xx_HAL_Driver/Src/stm32l4xx_hal_dac.c ****   {
 874:Drivers/STM32L4xx_HAL_Driver/Src/stm32l4xx_hal_dac.c ****     hdac->ErrorCode |= HAL_DAC_ERROR_DMA;
 875:Drivers/STM32L4xx_HAL_Driver/Src/stm32l4xx_hal_dac.c ****   }
 876:Drivers/STM32L4xx_HAL_Driver/Src/stm32l4xx_hal_dac.c **** 
 877:Drivers/STM32L4xx_HAL_Driver/Src/stm32l4xx_hal_dac.c ****   /* Return function status */
 878:Drivers/STM32L4xx_HAL_Driver/Src/stm32l4xx_hal_dac.c ****   return status;
 879:Drivers/STM32L4xx_HAL_Driver/Src/stm32l4xx_hal_dac.c **** }
 481              		.loc 1 879 1 view .LVU130
 482 0072 70BD     		pop	{r4, r5, r6, pc}
 483              	.LVL27:
 484              	.L46:
 798:Drivers/STM32L4xx_HAL_Driver/Src/stm32l4xx_hal_dac.c ****         break;
 485              		.loc 1 798 9 is_stmt 1 view .LVU131
 798:Drivers/STM32L4xx_HAL_Driver/Src/stm32l4xx_hal_dac.c ****         break;
 486              		.loc 1 798 33 is_stmt 0 view .LVU132
 487 0074 2268     		ldr	r2, [r4]
 798:Drivers/STM32L4xx_HAL_Driver/Src/stm32l4xx_hal_dac.c ****         break;
 488              		.loc 1 798 28 view .LVU133
 489 0076 0832     		adds	r2, r2, #8
 490              	.LVL28:
 799:Drivers/STM32L4xx_HAL_Driver/Src/stm32l4xx_hal_dac.c ****       case DAC_ALIGN_12B_L:
 491              		.loc 1 799 9 is_stmt 1 view .LVU134
 492 0078 E4E7     		b	.L36
 493              	.LVL29:
 494              	.L34:
 802:Drivers/STM32L4xx_HAL_Driver/Src/stm32l4xx_hal_dac.c ****         break;
 495              		.loc 1 802 9 view .LVU135
 802:Drivers/STM32L4xx_HAL_Driver/Src/stm32l4xx_hal_dac.c ****         break;
 496              		.loc 1 802 33 is_stmt 0 view .LVU136
 497 007a 2268     		ldr	r2, [r4]
 802:Drivers/STM32L4xx_HAL_Driver/Src/stm32l4xx_hal_dac.c ****         break;
 498              		.loc 1 802 28 view .LVU137
 499 007c 0C32     		adds	r2, r2, #12
 500              	.LVL30:
 803:Drivers/STM32L4xx_HAL_Driver/Src/stm32l4xx_hal_dac.c ****       case DAC_ALIGN_8B_R:
 501              		.loc 1 803 9 is_stmt 1 view .LVU138
ARM GAS  /tmp/cc4ENhcr.s 			page 26


 502 007e E1E7     		b	.L36
 503              	.LVL31:
 504              	.L35:
 806:Drivers/STM32L4xx_HAL_Driver/Src/stm32l4xx_hal_dac.c ****         break;
 505              		.loc 1 806 9 view .LVU139
 806:Drivers/STM32L4xx_HAL_Driver/Src/stm32l4xx_hal_dac.c ****         break;
 506              		.loc 1 806 33 is_stmt 0 view .LVU140
 507 0080 2268     		ldr	r2, [r4]
 806:Drivers/STM32L4xx_HAL_Driver/Src/stm32l4xx_hal_dac.c ****         break;
 508              		.loc 1 806 28 view .LVU141
 509 0082 1032     		adds	r2, r2, #16
 510              	.LVL32:
 807:Drivers/STM32L4xx_HAL_Driver/Src/stm32l4xx_hal_dac.c ****       default:
 511              		.loc 1 807 9 is_stmt 1 view .LVU142
 512 0084 DEE7     		b	.L36
 513              	.LVL33:
 514              	.L33:
 815:Drivers/STM32L4xx_HAL_Driver/Src/stm32l4xx_hal_dac.c **** 
 515              		.loc 1 815 5 view .LVU143
 815:Drivers/STM32L4xx_HAL_Driver/Src/stm32l4xx_hal_dac.c **** 
 516              		.loc 1 815 9 is_stmt 0 view .LVU144
 517 0086 E068     		ldr	r0, [r4, #12]
 815:Drivers/STM32L4xx_HAL_Driver/Src/stm32l4xx_hal_dac.c **** 
 518              		.loc 1 815 41 view .LVU145
 519 0088 194E     		ldr	r6, .L48+12
 520 008a C662     		str	r6, [r0, #44]
 818:Drivers/STM32L4xx_HAL_Driver/Src/stm32l4xx_hal_dac.c **** 
 521              		.loc 1 818 5 is_stmt 1 view .LVU146
 818:Drivers/STM32L4xx_HAL_Driver/Src/stm32l4xx_hal_dac.c **** 
 522              		.loc 1 818 9 is_stmt 0 view .LVU147
 523 008c E068     		ldr	r0, [r4, #12]
 818:Drivers/STM32L4xx_HAL_Driver/Src/stm32l4xx_hal_dac.c **** 
 524              		.loc 1 818 45 view .LVU148
 525 008e 194E     		ldr	r6, .L48+16
 526 0090 0663     		str	r6, [r0, #48]
 821:Drivers/STM32L4xx_HAL_Driver/Src/stm32l4xx_hal_dac.c **** 
 527              		.loc 1 821 5 is_stmt 1 view .LVU149
 821:Drivers/STM32L4xx_HAL_Driver/Src/stm32l4xx_hal_dac.c **** 
 528              		.loc 1 821 9 is_stmt 0 view .LVU150
 529 0092 E068     		ldr	r0, [r4, #12]
 821:Drivers/STM32L4xx_HAL_Driver/Src/stm32l4xx_hal_dac.c **** 
 530              		.loc 1 821 42 view .LVU151
 531 0094 184E     		ldr	r6, .L48+20
 532 0096 4663     		str	r6, [r0, #52]
 824:Drivers/STM32L4xx_HAL_Driver/Src/stm32l4xx_hal_dac.c **** 
 533              		.loc 1 824 5 is_stmt 1 view .LVU152
 534 0098 2668     		ldr	r6, [r4]
 535 009a 3068     		ldr	r0, [r6]
 536 009c 40F08050 		orr	r0, r0, #268435456
 537 00a0 3060     		str	r0, [r6]
 827:Drivers/STM32L4xx_HAL_Driver/Src/stm32l4xx_hal_dac.c ****     {
 538              		.loc 1 827 5 view .LVU153
 539 00a2 042A     		cmp	r2, #4
 540 00a4 07D0     		beq	.L37
 541 00a6 082A     		cmp	r2, #8
 542 00a8 08D0     		beq	.L38
 543 00aa 0AB1     		cbz	r2, .L47
ARM GAS  /tmp/cc4ENhcr.s 			page 27


 544 00ac 0022     		movs	r2, #0
 545 00ae C9E7     		b	.L36
 546              	.L47:
 831:Drivers/STM32L4xx_HAL_Driver/Src/stm32l4xx_hal_dac.c ****         break;
 547              		.loc 1 831 9 view .LVU154
 831:Drivers/STM32L4xx_HAL_Driver/Src/stm32l4xx_hal_dac.c ****         break;
 548              		.loc 1 831 33 is_stmt 0 view .LVU155
 549 00b0 2268     		ldr	r2, [r4]
 831:Drivers/STM32L4xx_HAL_Driver/Src/stm32l4xx_hal_dac.c ****         break;
 550              		.loc 1 831 28 view .LVU156
 551 00b2 1432     		adds	r2, r2, #20
 552              	.LVL34:
 832:Drivers/STM32L4xx_HAL_Driver/Src/stm32l4xx_hal_dac.c ****       case DAC_ALIGN_12B_L:
 553              		.loc 1 832 9 is_stmt 1 view .LVU157
 554 00b4 C6E7     		b	.L36
 555              	.LVL35:
 556              	.L37:
 835:Drivers/STM32L4xx_HAL_Driver/Src/stm32l4xx_hal_dac.c ****         break;
 557              		.loc 1 835 9 view .LVU158
 835:Drivers/STM32L4xx_HAL_Driver/Src/stm32l4xx_hal_dac.c ****         break;
 558              		.loc 1 835 33 is_stmt 0 view .LVU159
 559 00b6 2268     		ldr	r2, [r4]
 835:Drivers/STM32L4xx_HAL_Driver/Src/stm32l4xx_hal_dac.c ****         break;
 560              		.loc 1 835 28 view .LVU160
 561 00b8 1832     		adds	r2, r2, #24
 562              	.LVL36:
 836:Drivers/STM32L4xx_HAL_Driver/Src/stm32l4xx_hal_dac.c ****       case DAC_ALIGN_8B_R:
 563              		.loc 1 836 9 is_stmt 1 view .LVU161
 564 00ba C3E7     		b	.L36
 565              	.LVL37:
 566              	.L38:
 839:Drivers/STM32L4xx_HAL_Driver/Src/stm32l4xx_hal_dac.c ****         break;
 567              		.loc 1 839 9 view .LVU162
 839:Drivers/STM32L4xx_HAL_Driver/Src/stm32l4xx_hal_dac.c ****         break;
 568              		.loc 1 839 33 is_stmt 0 view .LVU163
 569 00bc 2268     		ldr	r2, [r4]
 839:Drivers/STM32L4xx_HAL_Driver/Src/stm32l4xx_hal_dac.c ****         break;
 570              		.loc 1 839 28 view .LVU164
 571 00be 1C32     		adds	r2, r2, #28
 572              	.LVL38:
 840:Drivers/STM32L4xx_HAL_Driver/Src/stm32l4xx_hal_dac.c ****       default:
 573              		.loc 1 840 9 is_stmt 1 view .LVU165
 574 00c0 C0E7     		b	.L36
 575              	.L39:
 858:Drivers/STM32L4xx_HAL_Driver/Src/stm32l4xx_hal_dac.c **** 
 576              		.loc 1 858 5 view .LVU166
 577 00c2 2668     		ldr	r6, [r4]
 578 00c4 3068     		ldr	r0, [r6]
 579 00c6 40F00050 		orr	r0, r0, #536870912
 580 00ca 3060     		str	r0, [r6]
 861:Drivers/STM32L4xx_HAL_Driver/Src/stm32l4xx_hal_dac.c ****   }
 581              		.loc 1 861 5 view .LVU167
 861:Drivers/STM32L4xx_HAL_Driver/Src/stm32l4xx_hal_dac.c ****   }
 582              		.loc 1 861 14 is_stmt 0 view .LVU168
 583 00cc E068     		ldr	r0, [r4, #12]
 584 00ce FFF7FEFF 		bl	HAL_DMA_Start_IT
 585              	.LVL39:
ARM GAS  /tmp/cc4ENhcr.s 			page 28


 861:Drivers/STM32L4xx_HAL_Driver/Src/stm32l4xx_hal_dac.c ****   }
 586              		.loc 1 861 14 view .LVU169
 587 00d2 C1E7     		b	.L40
 588              	.L41:
 874:Drivers/STM32L4xx_HAL_Driver/Src/stm32l4xx_hal_dac.c ****   }
 589              		.loc 1 874 5 is_stmt 1 view .LVU170
 874:Drivers/STM32L4xx_HAL_Driver/Src/stm32l4xx_hal_dac.c ****   }
 590              		.loc 1 874 21 is_stmt 0 view .LVU171
 591 00d4 2369     		ldr	r3, [r4, #16]
 592 00d6 43F00403 		orr	r3, r3, #4
 593 00da 2361     		str	r3, [r4, #16]
 594 00dc C9E7     		b	.L32
 595              	.LVL40:
 596              	.L42:
 774:Drivers/STM32L4xx_HAL_Driver/Src/stm32l4xx_hal_dac.c **** 
 597              		.loc 1 774 3 view .LVU172
 598 00de 0220     		movs	r0, #2
 599 00e0 C7E7     		b	.L32
 600              	.L49:
 601 00e2 00BF     		.align	2
 602              	.L48:
 603 00e4 00000000 		.word	DAC_DMAConvCpltCh1
 604 00e8 00000000 		.word	DAC_DMAHalfConvCpltCh1
 605 00ec 00000000 		.word	DAC_DMAErrorCh1
 606 00f0 00000000 		.word	DAC_DMAConvCpltCh2
 607 00f4 00000000 		.word	DAC_DMAHalfConvCpltCh2
 608 00f8 00000000 		.word	DAC_DMAErrorCh2
 609              		.cfi_endproc
 610              	.LFE138:
 612              		.section	.text.HAL_DAC_Stop_DMA,"ax",%progbits
 613              		.align	1
 614              		.global	HAL_DAC_Stop_DMA
 615              		.syntax unified
 616              		.thumb
 617              		.thumb_func
 618              		.fpu fpv4-sp-d16
 620              	HAL_DAC_Stop_DMA:
 621              	.LVL41:
 622              	.LFB139:
 880:Drivers/STM32L4xx_HAL_Driver/Src/stm32l4xx_hal_dac.c **** #endif  /* STM32L431xx STM32L432xx STM32L433xx STM32L442xx STM32L443xx                         */
 881:Drivers/STM32L4xx_HAL_Driver/Src/stm32l4xx_hal_dac.c ****         /* STM32L471xx STM32L475xx STM32L476xx STM32L485xx STM32L486xx STM32L496xx STM32L4A6xx */
 882:Drivers/STM32L4xx_HAL_Driver/Src/stm32l4xx_hal_dac.c ****         /* STM32L4P5xx STM32L4Q5xx                                                             */
 883:Drivers/STM32L4xx_HAL_Driver/Src/stm32l4xx_hal_dac.c ****         /* STM32L4R5xx STM32L4R7xx STM32L4R9xx STM32L4S5xx STM32L4S7xx STM32L4S9xx             */
 884:Drivers/STM32L4xx_HAL_Driver/Src/stm32l4xx_hal_dac.c **** 
 885:Drivers/STM32L4xx_HAL_Driver/Src/stm32l4xx_hal_dac.c **** /**
 886:Drivers/STM32L4xx_HAL_Driver/Src/stm32l4xx_hal_dac.c ****   * @brief  Disables DAC and stop conversion of channel.
 887:Drivers/STM32L4xx_HAL_Driver/Src/stm32l4xx_hal_dac.c ****   * @param  hdac pointer to a DAC_HandleTypeDef structure that contains
 888:Drivers/STM32L4xx_HAL_Driver/Src/stm32l4xx_hal_dac.c ****   *         the configuration information for the specified DAC.
 889:Drivers/STM32L4xx_HAL_Driver/Src/stm32l4xx_hal_dac.c ****   * @param  Channel The selected DAC channel.
 890:Drivers/STM32L4xx_HAL_Driver/Src/stm32l4xx_hal_dac.c ****   *          This parameter can be one of the following values:
 891:Drivers/STM32L4xx_HAL_Driver/Src/stm32l4xx_hal_dac.c ****   *            @arg DAC_CHANNEL_1: DAC Channel1 selected
 892:Drivers/STM32L4xx_HAL_Driver/Src/stm32l4xx_hal_dac.c ****   *            @arg DAC_CHANNEL_2: DAC Channel2 selected
 893:Drivers/STM32L4xx_HAL_Driver/Src/stm32l4xx_hal_dac.c ****   * @retval HAL status
 894:Drivers/STM32L4xx_HAL_Driver/Src/stm32l4xx_hal_dac.c ****   */
 895:Drivers/STM32L4xx_HAL_Driver/Src/stm32l4xx_hal_dac.c **** HAL_StatusTypeDef HAL_DAC_Stop_DMA(DAC_HandleTypeDef *hdac, uint32_t Channel)
 896:Drivers/STM32L4xx_HAL_Driver/Src/stm32l4xx_hal_dac.c **** {
 623              		.loc 1 896 1 is_stmt 1 view -0
ARM GAS  /tmp/cc4ENhcr.s 			page 29


 624              		.cfi_startproc
 625              		@ args = 0, pretend = 0, frame = 0
 626              		@ frame_needed = 0, uses_anonymous_args = 0
 627              		.loc 1 896 1 is_stmt 0 view .LVU174
 628 0000 70B5     		push	{r4, r5, r6, lr}
 629              	.LCFI11:
 630              		.cfi_def_cfa_offset 16
 631              		.cfi_offset 4, -16
 632              		.cfi_offset 5, -12
 633              		.cfi_offset 6, -8
 634              		.cfi_offset 14, -4
 635 0002 0446     		mov	r4, r0
 897:Drivers/STM32L4xx_HAL_Driver/Src/stm32l4xx_hal_dac.c ****   /* Check the parameters */
 898:Drivers/STM32L4xx_HAL_Driver/Src/stm32l4xx_hal_dac.c ****   assert_param(IS_DAC_CHANNEL(Channel));
 636              		.loc 1 898 3 is_stmt 1 view .LVU175
 899:Drivers/STM32L4xx_HAL_Driver/Src/stm32l4xx_hal_dac.c **** 
 900:Drivers/STM32L4xx_HAL_Driver/Src/stm32l4xx_hal_dac.c ****   /* Disable the selected DAC channel DMA request */
 901:Drivers/STM32L4xx_HAL_Driver/Src/stm32l4xx_hal_dac.c ****   hdac->Instance->CR &= ~(DAC_CR_DMAEN1 << (Channel & 0x10UL));
 637              		.loc 1 901 3 view .LVU176
 638              		.loc 1 901 7 is_stmt 0 view .LVU177
 639 0004 0368     		ldr	r3, [r0]
 640              		.loc 1 901 22 view .LVU178
 641 0006 1868     		ldr	r0, [r3]
 642              	.LVL42:
 643              		.loc 1 901 53 view .LVU179
 644 0008 01F01006 		and	r6, r1, #16
 645              		.loc 1 901 41 view .LVU180
 646 000c 4FF48055 		mov	r5, #4096
 647 0010 B540     		lsls	r5, r5, r6
 648              		.loc 1 901 22 view .LVU181
 649 0012 20EA0500 		bic	r0, r0, r5
 650 0016 1860     		str	r0, [r3]
 902:Drivers/STM32L4xx_HAL_Driver/Src/stm32l4xx_hal_dac.c **** 
 903:Drivers/STM32L4xx_HAL_Driver/Src/stm32l4xx_hal_dac.c ****   /* Disable the Peripheral */
 904:Drivers/STM32L4xx_HAL_Driver/Src/stm32l4xx_hal_dac.c ****   __HAL_DAC_DISABLE(hdac, Channel);
 651              		.loc 1 904 3 is_stmt 1 view .LVU182
 652 0018 2068     		ldr	r0, [r4]
 653 001a 0368     		ldr	r3, [r0]
 654 001c 0122     		movs	r2, #1
 655 001e B240     		lsls	r2, r2, r6
 656 0020 23EA0203 		bic	r3, r3, r2
 657 0024 0360     		str	r3, [r0]
 905:Drivers/STM32L4xx_HAL_Driver/Src/stm32l4xx_hal_dac.c **** 
 906:Drivers/STM32L4xx_HAL_Driver/Src/stm32l4xx_hal_dac.c ****   /* Disable the DMA channel */
 907:Drivers/STM32L4xx_HAL_Driver/Src/stm32l4xx_hal_dac.c **** #if defined (STM32L431xx) || defined (STM32L432xx) || defined (STM32L433xx) || defined (STM32L442xx
 908:Drivers/STM32L4xx_HAL_Driver/Src/stm32l4xx_hal_dac.c ****     defined (STM32L471xx) || defined (STM32L475xx) || defined (STM32L476xx) || defined (STM32L485xx
 909:Drivers/STM32L4xx_HAL_Driver/Src/stm32l4xx_hal_dac.c ****     defined (STM32L4P5xx) || defined (STM32L4Q5xx) || \
 910:Drivers/STM32L4xx_HAL_Driver/Src/stm32l4xx_hal_dac.c ****     defined (STM32L4R5xx) || defined (STM32L4R7xx) || defined (STM32L4R9xx) || defined (STM32L4S5xx
 911:Drivers/STM32L4xx_HAL_Driver/Src/stm32l4xx_hal_dac.c ****   /* Channel1 is used */
 912:Drivers/STM32L4xx_HAL_Driver/Src/stm32l4xx_hal_dac.c ****   if (Channel == DAC_CHANNEL_1)
 658              		.loc 1 912 3 view .LVU183
 659              		.loc 1 912 6 is_stmt 0 view .LVU184
 660 0026 49B9     		cbnz	r1, .L51
 913:Drivers/STM32L4xx_HAL_Driver/Src/stm32l4xx_hal_dac.c ****   {
 914:Drivers/STM32L4xx_HAL_Driver/Src/stm32l4xx_hal_dac.c ****     /* Disable the DMA channel */
 915:Drivers/STM32L4xx_HAL_Driver/Src/stm32l4xx_hal_dac.c ****     (void)HAL_DMA_Abort(hdac->DMA_Handle1);
 661              		.loc 1 915 5 is_stmt 1 view .LVU185
ARM GAS  /tmp/cc4ENhcr.s 			page 30


 662              		.loc 1 915 11 is_stmt 0 view .LVU186
 663 0028 A068     		ldr	r0, [r4, #8]
 664 002a FFF7FEFF 		bl	HAL_DMA_Abort
 665              	.LVL43:
 916:Drivers/STM32L4xx_HAL_Driver/Src/stm32l4xx_hal_dac.c **** 
 917:Drivers/STM32L4xx_HAL_Driver/Src/stm32l4xx_hal_dac.c ****     /* Disable the DAC DMA underrun interrupt */
 918:Drivers/STM32L4xx_HAL_Driver/Src/stm32l4xx_hal_dac.c ****     __HAL_DAC_DISABLE_IT(hdac, DAC_IT_DMAUDR1);
 666              		.loc 1 918 5 is_stmt 1 view .LVU187
 667 002e 2268     		ldr	r2, [r4]
 668 0030 1368     		ldr	r3, [r2]
 669 0032 23F40053 		bic	r3, r3, #8192
 670 0036 1360     		str	r3, [r2]
 671              	.L52:
 919:Drivers/STM32L4xx_HAL_Driver/Src/stm32l4xx_hal_dac.c ****   }
 920:Drivers/STM32L4xx_HAL_Driver/Src/stm32l4xx_hal_dac.c ****   else /* Channel2 is used for */
 921:Drivers/STM32L4xx_HAL_Driver/Src/stm32l4xx_hal_dac.c ****   {
 922:Drivers/STM32L4xx_HAL_Driver/Src/stm32l4xx_hal_dac.c ****     /* Disable the DMA channel */
 923:Drivers/STM32L4xx_HAL_Driver/Src/stm32l4xx_hal_dac.c ****     (void)HAL_DMA_Abort(hdac->DMA_Handle2);
 924:Drivers/STM32L4xx_HAL_Driver/Src/stm32l4xx_hal_dac.c **** 
 925:Drivers/STM32L4xx_HAL_Driver/Src/stm32l4xx_hal_dac.c ****     /* Disable the DAC DMA underrun interrupt */
 926:Drivers/STM32L4xx_HAL_Driver/Src/stm32l4xx_hal_dac.c ****     __HAL_DAC_DISABLE_IT(hdac, DAC_IT_DMAUDR2);
 927:Drivers/STM32L4xx_HAL_Driver/Src/stm32l4xx_hal_dac.c ****   }
 928:Drivers/STM32L4xx_HAL_Driver/Src/stm32l4xx_hal_dac.c **** #endif  /* STM32L431xx STM32L432xx STM32L433xx STM32L442xx STM32L443xx                         */
 929:Drivers/STM32L4xx_HAL_Driver/Src/stm32l4xx_hal_dac.c ****         /* STM32L471xx STM32L475xx STM32L476xx STM32L485xx STM32L486xx STM32L496xx STM32L4A6xx */
 930:Drivers/STM32L4xx_HAL_Driver/Src/stm32l4xx_hal_dac.c ****         /* STM32L4P5xx STM32L4Q5xx                                                             */
 931:Drivers/STM32L4xx_HAL_Driver/Src/stm32l4xx_hal_dac.c ****         /* STM32L4R5xx STM32L4R7xx STM32L4R9xx STM32L4S5xx STM32L4S7xx STM32L4S9xx             */
 932:Drivers/STM32L4xx_HAL_Driver/Src/stm32l4xx_hal_dac.c **** 
 933:Drivers/STM32L4xx_HAL_Driver/Src/stm32l4xx_hal_dac.c **** #if defined (STM32L451xx) || defined (STM32L452xx) || defined (STM32L462xx)
 934:Drivers/STM32L4xx_HAL_Driver/Src/stm32l4xx_hal_dac.c ****   /* Disable the DMA channel */
 935:Drivers/STM32L4xx_HAL_Driver/Src/stm32l4xx_hal_dac.c ****   (void)HAL_DMA_Abort(hdac->DMA_Handle1);
 936:Drivers/STM32L4xx_HAL_Driver/Src/stm32l4xx_hal_dac.c **** 
 937:Drivers/STM32L4xx_HAL_Driver/Src/stm32l4xx_hal_dac.c ****   /* Disable the DAC DMA underrun interrupt */
 938:Drivers/STM32L4xx_HAL_Driver/Src/stm32l4xx_hal_dac.c ****   __HAL_DAC_DISABLE_IT(hdac, DAC_IT_DMAUDR1);
 939:Drivers/STM32L4xx_HAL_Driver/Src/stm32l4xx_hal_dac.c **** #endif /* STM32L451xx STM32L452xx STM32L462xx */
 940:Drivers/STM32L4xx_HAL_Driver/Src/stm32l4xx_hal_dac.c **** 
 941:Drivers/STM32L4xx_HAL_Driver/Src/stm32l4xx_hal_dac.c ****   /* Return function status */
 942:Drivers/STM32L4xx_HAL_Driver/Src/stm32l4xx_hal_dac.c ****   return HAL_OK;
 672              		.loc 1 942 3 view .LVU188
 943:Drivers/STM32L4xx_HAL_Driver/Src/stm32l4xx_hal_dac.c **** }
 673              		.loc 1 943 1 is_stmt 0 view .LVU189
 674 0038 0020     		movs	r0, #0
 675 003a 70BD     		pop	{r4, r5, r6, pc}
 676              	.LVL44:
 677              	.L51:
 923:Drivers/STM32L4xx_HAL_Driver/Src/stm32l4xx_hal_dac.c **** 
 678              		.loc 1 923 5 is_stmt 1 view .LVU190
 923:Drivers/STM32L4xx_HAL_Driver/Src/stm32l4xx_hal_dac.c **** 
 679              		.loc 1 923 11 is_stmt 0 view .LVU191
 680 003c E068     		ldr	r0, [r4, #12]
 681 003e FFF7FEFF 		bl	HAL_DMA_Abort
 682              	.LVL45:
 926:Drivers/STM32L4xx_HAL_Driver/Src/stm32l4xx_hal_dac.c ****   }
 683              		.loc 1 926 5 is_stmt 1 view .LVU192
 684 0042 2268     		ldr	r2, [r4]
 685 0044 1368     		ldr	r3, [r2]
 686 0046 23F00053 		bic	r3, r3, #536870912
 687 004a 1360     		str	r3, [r2]
ARM GAS  /tmp/cc4ENhcr.s 			page 31


 688 004c F4E7     		b	.L52
 689              		.cfi_endproc
 690              	.LFE139:
 692              		.section	.text.HAL_DAC_SetValue,"ax",%progbits
 693              		.align	1
 694              		.global	HAL_DAC_SetValue
 695              		.syntax unified
 696              		.thumb
 697              		.thumb_func
 698              		.fpu fpv4-sp-d16
 700              	HAL_DAC_SetValue:
 701              	.LVL46:
 702              	.LFB141:
 944:Drivers/STM32L4xx_HAL_Driver/Src/stm32l4xx_hal_dac.c **** 
 945:Drivers/STM32L4xx_HAL_Driver/Src/stm32l4xx_hal_dac.c **** /* DAC channel 2 is available on top of DAC channel 1 in */
 946:Drivers/STM32L4xx_HAL_Driver/Src/stm32l4xx_hal_dac.c **** /* STM32L431xx STM32L432xx STM32L433xx STM32L442xx STM32L443xx                         */
 947:Drivers/STM32L4xx_HAL_Driver/Src/stm32l4xx_hal_dac.c **** /* STM32L471xx STM32L475xx STM32L476xx STM32L485xx STM32L486xx STM32L496xx STM32L4A6xx */
 948:Drivers/STM32L4xx_HAL_Driver/Src/stm32l4xx_hal_dac.c **** 
 949:Drivers/STM32L4xx_HAL_Driver/Src/stm32l4xx_hal_dac.c **** /**
 950:Drivers/STM32L4xx_HAL_Driver/Src/stm32l4xx_hal_dac.c ****   * @brief  Handles DAC interrupt request
 951:Drivers/STM32L4xx_HAL_Driver/Src/stm32l4xx_hal_dac.c ****   *         This function uses the interruption of DMA
 952:Drivers/STM32L4xx_HAL_Driver/Src/stm32l4xx_hal_dac.c ****   *         underrun.
 953:Drivers/STM32L4xx_HAL_Driver/Src/stm32l4xx_hal_dac.c ****   * @param  hdac pointer to a DAC_HandleTypeDef structure that contains
 954:Drivers/STM32L4xx_HAL_Driver/Src/stm32l4xx_hal_dac.c ****   *         the configuration information for the specified DAC.
 955:Drivers/STM32L4xx_HAL_Driver/Src/stm32l4xx_hal_dac.c ****   * @retval None
 956:Drivers/STM32L4xx_HAL_Driver/Src/stm32l4xx_hal_dac.c ****   */
 957:Drivers/STM32L4xx_HAL_Driver/Src/stm32l4xx_hal_dac.c **** void HAL_DAC_IRQHandler(DAC_HandleTypeDef *hdac)
 958:Drivers/STM32L4xx_HAL_Driver/Src/stm32l4xx_hal_dac.c **** {
 959:Drivers/STM32L4xx_HAL_Driver/Src/stm32l4xx_hal_dac.c ****   if (__HAL_DAC_GET_IT_SOURCE(hdac, DAC_IT_DMAUDR1))
 960:Drivers/STM32L4xx_HAL_Driver/Src/stm32l4xx_hal_dac.c ****   {
 961:Drivers/STM32L4xx_HAL_Driver/Src/stm32l4xx_hal_dac.c ****     /* Check underrun flag of DAC channel 1 */
 962:Drivers/STM32L4xx_HAL_Driver/Src/stm32l4xx_hal_dac.c ****     if (__HAL_DAC_GET_FLAG(hdac, DAC_FLAG_DMAUDR1))
 963:Drivers/STM32L4xx_HAL_Driver/Src/stm32l4xx_hal_dac.c ****     {
 964:Drivers/STM32L4xx_HAL_Driver/Src/stm32l4xx_hal_dac.c ****       /* Change DAC state to error state */
 965:Drivers/STM32L4xx_HAL_Driver/Src/stm32l4xx_hal_dac.c ****       hdac->State = HAL_DAC_STATE_ERROR;
 966:Drivers/STM32L4xx_HAL_Driver/Src/stm32l4xx_hal_dac.c **** 
 967:Drivers/STM32L4xx_HAL_Driver/Src/stm32l4xx_hal_dac.c ****       /* Set DAC error code to chanel1 DMA underrun error */
 968:Drivers/STM32L4xx_HAL_Driver/Src/stm32l4xx_hal_dac.c ****       SET_BIT(hdac->ErrorCode, HAL_DAC_ERROR_DMAUNDERRUNCH1);
 969:Drivers/STM32L4xx_HAL_Driver/Src/stm32l4xx_hal_dac.c **** 
 970:Drivers/STM32L4xx_HAL_Driver/Src/stm32l4xx_hal_dac.c ****       /* Clear the underrun flag */
 971:Drivers/STM32L4xx_HAL_Driver/Src/stm32l4xx_hal_dac.c ****       __HAL_DAC_CLEAR_FLAG(hdac, DAC_FLAG_DMAUDR1);
 972:Drivers/STM32L4xx_HAL_Driver/Src/stm32l4xx_hal_dac.c **** 
 973:Drivers/STM32L4xx_HAL_Driver/Src/stm32l4xx_hal_dac.c ****       /* Disable the selected DAC channel1 DMA request */
 974:Drivers/STM32L4xx_HAL_Driver/Src/stm32l4xx_hal_dac.c ****       CLEAR_BIT(hdac->Instance->CR, DAC_CR_DMAEN1);
 975:Drivers/STM32L4xx_HAL_Driver/Src/stm32l4xx_hal_dac.c **** 
 976:Drivers/STM32L4xx_HAL_Driver/Src/stm32l4xx_hal_dac.c ****       /* Error callback */
 977:Drivers/STM32L4xx_HAL_Driver/Src/stm32l4xx_hal_dac.c **** #if (USE_HAL_DAC_REGISTER_CALLBACKS == 1)
 978:Drivers/STM32L4xx_HAL_Driver/Src/stm32l4xx_hal_dac.c ****       hdac->DMAUnderrunCallbackCh1(hdac);
 979:Drivers/STM32L4xx_HAL_Driver/Src/stm32l4xx_hal_dac.c **** #else
 980:Drivers/STM32L4xx_HAL_Driver/Src/stm32l4xx_hal_dac.c ****       HAL_DAC_DMAUnderrunCallbackCh1(hdac);
 981:Drivers/STM32L4xx_HAL_Driver/Src/stm32l4xx_hal_dac.c **** #endif /* USE_HAL_DAC_REGISTER_CALLBACKS */
 982:Drivers/STM32L4xx_HAL_Driver/Src/stm32l4xx_hal_dac.c ****     }
 983:Drivers/STM32L4xx_HAL_Driver/Src/stm32l4xx_hal_dac.c ****   }
 984:Drivers/STM32L4xx_HAL_Driver/Src/stm32l4xx_hal_dac.c **** #if defined (STM32L431xx) || defined (STM32L432xx) || defined (STM32L433xx) || defined (STM32L442xx
 985:Drivers/STM32L4xx_HAL_Driver/Src/stm32l4xx_hal_dac.c ****     defined (STM32L471xx) || defined (STM32L475xx) || defined (STM32L476xx) || defined (STM32L485xx
 986:Drivers/STM32L4xx_HAL_Driver/Src/stm32l4xx_hal_dac.c ****     defined (STM32L4P5xx) || defined (STM32L4Q5xx) || \
 987:Drivers/STM32L4xx_HAL_Driver/Src/stm32l4xx_hal_dac.c ****     defined (STM32L4R5xx) || defined (STM32L4R7xx) || defined (STM32L4R9xx) || defined (STM32L4S5xx
ARM GAS  /tmp/cc4ENhcr.s 			page 32


 988:Drivers/STM32L4xx_HAL_Driver/Src/stm32l4xx_hal_dac.c ****   if(__HAL_DAC_GET_IT_SOURCE(hdac, DAC_IT_DMAUDR2))
 989:Drivers/STM32L4xx_HAL_Driver/Src/stm32l4xx_hal_dac.c ****   {
 990:Drivers/STM32L4xx_HAL_Driver/Src/stm32l4xx_hal_dac.c ****     /* Check underrun flag of DAC channel 2 */
 991:Drivers/STM32L4xx_HAL_Driver/Src/stm32l4xx_hal_dac.c ****     if (__HAL_DAC_GET_FLAG(hdac, DAC_FLAG_DMAUDR2))
 992:Drivers/STM32L4xx_HAL_Driver/Src/stm32l4xx_hal_dac.c ****     {
 993:Drivers/STM32L4xx_HAL_Driver/Src/stm32l4xx_hal_dac.c ****       /* Change DAC state to error state */
 994:Drivers/STM32L4xx_HAL_Driver/Src/stm32l4xx_hal_dac.c ****       hdac->State = HAL_DAC_STATE_ERROR;
 995:Drivers/STM32L4xx_HAL_Driver/Src/stm32l4xx_hal_dac.c **** 
 996:Drivers/STM32L4xx_HAL_Driver/Src/stm32l4xx_hal_dac.c ****       /* Set DAC error code to channel2 DMA underrun error */
 997:Drivers/STM32L4xx_HAL_Driver/Src/stm32l4xx_hal_dac.c ****       SET_BIT(hdac->ErrorCode, HAL_DAC_ERROR_DMAUNDERRUNCH2);
 998:Drivers/STM32L4xx_HAL_Driver/Src/stm32l4xx_hal_dac.c **** 
 999:Drivers/STM32L4xx_HAL_Driver/Src/stm32l4xx_hal_dac.c ****       /* Clear the underrun flag */
1000:Drivers/STM32L4xx_HAL_Driver/Src/stm32l4xx_hal_dac.c ****       __HAL_DAC_CLEAR_FLAG(hdac, DAC_FLAG_DMAUDR2);
1001:Drivers/STM32L4xx_HAL_Driver/Src/stm32l4xx_hal_dac.c **** 
1002:Drivers/STM32L4xx_HAL_Driver/Src/stm32l4xx_hal_dac.c ****       /* Disable the selected DAC channel2 DMA request */
1003:Drivers/STM32L4xx_HAL_Driver/Src/stm32l4xx_hal_dac.c ****       CLEAR_BIT(hdac->Instance->CR, DAC_CR_DMAEN2);
1004:Drivers/STM32L4xx_HAL_Driver/Src/stm32l4xx_hal_dac.c **** 
1005:Drivers/STM32L4xx_HAL_Driver/Src/stm32l4xx_hal_dac.c ****       /* Error callback */
1006:Drivers/STM32L4xx_HAL_Driver/Src/stm32l4xx_hal_dac.c **** #if (USE_HAL_DAC_REGISTER_CALLBACKS == 1)
1007:Drivers/STM32L4xx_HAL_Driver/Src/stm32l4xx_hal_dac.c ****       hdac->DMAUnderrunCallbackCh2(hdac);
1008:Drivers/STM32L4xx_HAL_Driver/Src/stm32l4xx_hal_dac.c **** #else
1009:Drivers/STM32L4xx_HAL_Driver/Src/stm32l4xx_hal_dac.c ****       HAL_DACEx_DMAUnderrunCallbackCh2(hdac);
1010:Drivers/STM32L4xx_HAL_Driver/Src/stm32l4xx_hal_dac.c **** #endif /* USE_HAL_DAC_REGISTER_CALLBACKS */
1011:Drivers/STM32L4xx_HAL_Driver/Src/stm32l4xx_hal_dac.c ****     }
1012:Drivers/STM32L4xx_HAL_Driver/Src/stm32l4xx_hal_dac.c ****   }
1013:Drivers/STM32L4xx_HAL_Driver/Src/stm32l4xx_hal_dac.c **** #endif  /* STM32L431xx STM32L432xx STM32L433xx STM32L442xx STM32L443xx                         */
1014:Drivers/STM32L4xx_HAL_Driver/Src/stm32l4xx_hal_dac.c ****         /* STM32L471xx STM32L475xx STM32L476xx STM32L485xx STM32L486xx STM32L496xx STM32L4A6xx */
1015:Drivers/STM32L4xx_HAL_Driver/Src/stm32l4xx_hal_dac.c ****         /* STM32L4P5xx STM32L4Q5xx                                                             */
1016:Drivers/STM32L4xx_HAL_Driver/Src/stm32l4xx_hal_dac.c ****         /* STM32L4R5xx STM32L4R7xx STM32L4R9xx STM32L4S5xx STM32L4S7xx STM32L4S9xx             */
1017:Drivers/STM32L4xx_HAL_Driver/Src/stm32l4xx_hal_dac.c **** }
1018:Drivers/STM32L4xx_HAL_Driver/Src/stm32l4xx_hal_dac.c **** 
1019:Drivers/STM32L4xx_HAL_Driver/Src/stm32l4xx_hal_dac.c **** /**
1020:Drivers/STM32L4xx_HAL_Driver/Src/stm32l4xx_hal_dac.c ****   * @brief  Set the specified data holding register value for DAC channel.
1021:Drivers/STM32L4xx_HAL_Driver/Src/stm32l4xx_hal_dac.c ****   * @param  hdac pointer to a DAC_HandleTypeDef structure that contains
1022:Drivers/STM32L4xx_HAL_Driver/Src/stm32l4xx_hal_dac.c ****   *         the configuration information for the specified DAC.
1023:Drivers/STM32L4xx_HAL_Driver/Src/stm32l4xx_hal_dac.c ****   * @param  Channel The selected DAC channel.
1024:Drivers/STM32L4xx_HAL_Driver/Src/stm32l4xx_hal_dac.c ****   *          This parameter can be one of the following values:
1025:Drivers/STM32L4xx_HAL_Driver/Src/stm32l4xx_hal_dac.c ****   *            @arg DAC_CHANNEL_1: DAC Channel1 selected
1026:Drivers/STM32L4xx_HAL_Driver/Src/stm32l4xx_hal_dac.c ****   *            @arg DAC_CHANNEL_2: DAC Channel2 selected
1027:Drivers/STM32L4xx_HAL_Driver/Src/stm32l4xx_hal_dac.c ****   * @param  Alignment Specifies the data alignment.
1028:Drivers/STM32L4xx_HAL_Driver/Src/stm32l4xx_hal_dac.c ****   *          This parameter can be one of the following values:
1029:Drivers/STM32L4xx_HAL_Driver/Src/stm32l4xx_hal_dac.c ****   *            @arg DAC_ALIGN_8B_R: 8bit right data alignment selected
1030:Drivers/STM32L4xx_HAL_Driver/Src/stm32l4xx_hal_dac.c ****   *            @arg DAC_ALIGN_12B_L: 12bit left data alignment selected
1031:Drivers/STM32L4xx_HAL_Driver/Src/stm32l4xx_hal_dac.c ****   *            @arg DAC_ALIGN_12B_R: 12bit right data alignment selected
1032:Drivers/STM32L4xx_HAL_Driver/Src/stm32l4xx_hal_dac.c ****   * @param  Data Data to be loaded in the selected data holding register.
1033:Drivers/STM32L4xx_HAL_Driver/Src/stm32l4xx_hal_dac.c ****   * @retval HAL status
1034:Drivers/STM32L4xx_HAL_Driver/Src/stm32l4xx_hal_dac.c ****   */
1035:Drivers/STM32L4xx_HAL_Driver/Src/stm32l4xx_hal_dac.c **** HAL_StatusTypeDef HAL_DAC_SetValue(DAC_HandleTypeDef *hdac, uint32_t Channel, uint32_t Alignment, u
1036:Drivers/STM32L4xx_HAL_Driver/Src/stm32l4xx_hal_dac.c **** {
 703              		.loc 1 1036 1 view -0
 704              		.cfi_startproc
 705              		@ args = 0, pretend = 0, frame = 8
 706              		@ frame_needed = 0, uses_anonymous_args = 0
 707              		@ link register save eliminated.
 708              		.loc 1 1036 1 is_stmt 0 view .LVU194
 709 0000 10B4     		push	{r4}
 710              	.LCFI12:
ARM GAS  /tmp/cc4ENhcr.s 			page 33


 711              		.cfi_def_cfa_offset 4
 712              		.cfi_offset 4, -4
 713 0002 83B0     		sub	sp, sp, #12
 714              	.LCFI13:
 715              		.cfi_def_cfa_offset 16
1037:Drivers/STM32L4xx_HAL_Driver/Src/stm32l4xx_hal_dac.c ****   __IO uint32_t tmp = 0;
 716              		.loc 1 1037 3 is_stmt 1 view .LVU195
 717              		.loc 1 1037 17 is_stmt 0 view .LVU196
 718 0004 0024     		movs	r4, #0
 719 0006 0194     		str	r4, [sp, #4]
1038:Drivers/STM32L4xx_HAL_Driver/Src/stm32l4xx_hal_dac.c **** 
1039:Drivers/STM32L4xx_HAL_Driver/Src/stm32l4xx_hal_dac.c ****   /* Check the parameters */
1040:Drivers/STM32L4xx_HAL_Driver/Src/stm32l4xx_hal_dac.c ****   assert_param(IS_DAC_CHANNEL(Channel));
 720              		.loc 1 1040 3 is_stmt 1 view .LVU197
1041:Drivers/STM32L4xx_HAL_Driver/Src/stm32l4xx_hal_dac.c ****   assert_param(IS_DAC_ALIGN(Alignment));
 721              		.loc 1 1041 3 view .LVU198
1042:Drivers/STM32L4xx_HAL_Driver/Src/stm32l4xx_hal_dac.c ****   assert_param(IS_DAC_DATA(Data));
 722              		.loc 1 1042 3 view .LVU199
1043:Drivers/STM32L4xx_HAL_Driver/Src/stm32l4xx_hal_dac.c **** 
1044:Drivers/STM32L4xx_HAL_Driver/Src/stm32l4xx_hal_dac.c ****   tmp = (uint32_t)hdac->Instance;
 723              		.loc 1 1044 3 view .LVU200
 724              		.loc 1 1044 23 is_stmt 0 view .LVU201
 725 0008 0068     		ldr	r0, [r0]
 726              	.LVL47:
 727              		.loc 1 1044 7 view .LVU202
 728 000a 0190     		str	r0, [sp, #4]
1045:Drivers/STM32L4xx_HAL_Driver/Src/stm32l4xx_hal_dac.c ****   if (Channel == DAC_CHANNEL_1)
 729              		.loc 1 1045 3 is_stmt 1 view .LVU203
 730              		.loc 1 1045 6 is_stmt 0 view .LVU204
 731 000c 51B9     		cbnz	r1, .L55
1046:Drivers/STM32L4xx_HAL_Driver/Src/stm32l4xx_hal_dac.c ****   {
1047:Drivers/STM32L4xx_HAL_Driver/Src/stm32l4xx_hal_dac.c ****     tmp += DAC_DHR12R1_ALIGNMENT(Alignment);
 732              		.loc 1 1047 5 is_stmt 1 view .LVU205
 733              		.loc 1 1047 9 is_stmt 0 view .LVU206
 734 000e 0199     		ldr	r1, [sp, #4]
 735              	.LVL48:
 736              		.loc 1 1047 9 view .LVU207
 737 0010 0A44     		add	r2, r2, r1
 738              	.LVL49:
 739              		.loc 1 1047 9 view .LVU208
 740 0012 0832     		adds	r2, r2, #8
 741 0014 0192     		str	r2, [sp, #4]
 742              	.L56:
1048:Drivers/STM32L4xx_HAL_Driver/Src/stm32l4xx_hal_dac.c ****   }
1049:Drivers/STM32L4xx_HAL_Driver/Src/stm32l4xx_hal_dac.c ****   else
1050:Drivers/STM32L4xx_HAL_Driver/Src/stm32l4xx_hal_dac.c ****   {
1051:Drivers/STM32L4xx_HAL_Driver/Src/stm32l4xx_hal_dac.c ****     tmp += DAC_DHR12R2_ALIGNMENT(Alignment);
1052:Drivers/STM32L4xx_HAL_Driver/Src/stm32l4xx_hal_dac.c ****   }
1053:Drivers/STM32L4xx_HAL_Driver/Src/stm32l4xx_hal_dac.c **** 
1054:Drivers/STM32L4xx_HAL_Driver/Src/stm32l4xx_hal_dac.c ****   /* Set the DAC channel selected data holding register */
1055:Drivers/STM32L4xx_HAL_Driver/Src/stm32l4xx_hal_dac.c ****   *(__IO uint32_t *) tmp = Data;
 743              		.loc 1 1055 3 is_stmt 1 view .LVU209
 744              		.loc 1 1055 4 is_stmt 0 view .LVU210
 745 0016 019A     		ldr	r2, [sp, #4]
 746              		.loc 1 1055 26 view .LVU211
 747 0018 1360     		str	r3, [r2]
1056:Drivers/STM32L4xx_HAL_Driver/Src/stm32l4xx_hal_dac.c **** 
ARM GAS  /tmp/cc4ENhcr.s 			page 34


1057:Drivers/STM32L4xx_HAL_Driver/Src/stm32l4xx_hal_dac.c ****   /* Return function status */
1058:Drivers/STM32L4xx_HAL_Driver/Src/stm32l4xx_hal_dac.c ****   return HAL_OK;
 748              		.loc 1 1058 3 is_stmt 1 view .LVU212
1059:Drivers/STM32L4xx_HAL_Driver/Src/stm32l4xx_hal_dac.c **** }
 749              		.loc 1 1059 1 is_stmt 0 view .LVU213
 750 001a 0020     		movs	r0, #0
 751 001c 03B0     		add	sp, sp, #12
 752              	.LCFI14:
 753              		.cfi_remember_state
 754              		.cfi_def_cfa_offset 4
 755              		@ sp needed
 756 001e 5DF8044B 		ldr	r4, [sp], #4
 757              	.LCFI15:
 758              		.cfi_restore 4
 759              		.cfi_def_cfa_offset 0
 760 0022 7047     		bx	lr
 761              	.LVL50:
 762              	.L55:
 763              	.LCFI16:
 764              		.cfi_restore_state
1051:Drivers/STM32L4xx_HAL_Driver/Src/stm32l4xx_hal_dac.c ****   }
 765              		.loc 1 1051 5 is_stmt 1 view .LVU214
1051:Drivers/STM32L4xx_HAL_Driver/Src/stm32l4xx_hal_dac.c ****   }
 766              		.loc 1 1051 9 is_stmt 0 view .LVU215
 767 0024 0199     		ldr	r1, [sp, #4]
 768              	.LVL51:
1051:Drivers/STM32L4xx_HAL_Driver/Src/stm32l4xx_hal_dac.c ****   }
 769              		.loc 1 1051 9 view .LVU216
 770 0026 0A44     		add	r2, r2, r1
 771              	.LVL52:
1051:Drivers/STM32L4xx_HAL_Driver/Src/stm32l4xx_hal_dac.c ****   }
 772              		.loc 1 1051 9 view .LVU217
 773 0028 1432     		adds	r2, r2, #20
 774 002a 0192     		str	r2, [sp, #4]
 775 002c F3E7     		b	.L56
 776              		.cfi_endproc
 777              	.LFE141:
 779              		.section	.text.HAL_DAC_ConvCpltCallbackCh1,"ax",%progbits
 780              		.align	1
 781              		.weak	HAL_DAC_ConvCpltCallbackCh1
 782              		.syntax unified
 783              		.thumb
 784              		.thumb_func
 785              		.fpu fpv4-sp-d16
 787              	HAL_DAC_ConvCpltCallbackCh1:
 788              	.LVL53:
 789              	.LFB142:
1060:Drivers/STM32L4xx_HAL_Driver/Src/stm32l4xx_hal_dac.c **** 
1061:Drivers/STM32L4xx_HAL_Driver/Src/stm32l4xx_hal_dac.c **** /**
1062:Drivers/STM32L4xx_HAL_Driver/Src/stm32l4xx_hal_dac.c ****   * @brief  Conversion complete callback in non-blocking mode for Channel1
1063:Drivers/STM32L4xx_HAL_Driver/Src/stm32l4xx_hal_dac.c ****   * @param  hdac pointer to a DAC_HandleTypeDef structure that contains
1064:Drivers/STM32L4xx_HAL_Driver/Src/stm32l4xx_hal_dac.c ****   *         the configuration information for the specified DAC.
1065:Drivers/STM32L4xx_HAL_Driver/Src/stm32l4xx_hal_dac.c ****   * @retval None
1066:Drivers/STM32L4xx_HAL_Driver/Src/stm32l4xx_hal_dac.c ****   */
1067:Drivers/STM32L4xx_HAL_Driver/Src/stm32l4xx_hal_dac.c **** __weak void HAL_DAC_ConvCpltCallbackCh1(DAC_HandleTypeDef *hdac)
1068:Drivers/STM32L4xx_HAL_Driver/Src/stm32l4xx_hal_dac.c **** {
 790              		.loc 1 1068 1 is_stmt 1 view -0
ARM GAS  /tmp/cc4ENhcr.s 			page 35


 791              		.cfi_startproc
 792              		@ args = 0, pretend = 0, frame = 0
 793              		@ frame_needed = 0, uses_anonymous_args = 0
 794              		@ link register save eliminated.
1069:Drivers/STM32L4xx_HAL_Driver/Src/stm32l4xx_hal_dac.c ****   /* Prevent unused argument(s) compilation warning */
1070:Drivers/STM32L4xx_HAL_Driver/Src/stm32l4xx_hal_dac.c ****   UNUSED(hdac);
 795              		.loc 1 1070 3 view .LVU219
1071:Drivers/STM32L4xx_HAL_Driver/Src/stm32l4xx_hal_dac.c **** 
1072:Drivers/STM32L4xx_HAL_Driver/Src/stm32l4xx_hal_dac.c ****   /* NOTE : This function should not be modified, when the callback is needed,
1073:Drivers/STM32L4xx_HAL_Driver/Src/stm32l4xx_hal_dac.c ****             the HAL_DAC_ConvCpltCallbackCh1 could be implemented in the user file
1074:Drivers/STM32L4xx_HAL_Driver/Src/stm32l4xx_hal_dac.c ****    */
1075:Drivers/STM32L4xx_HAL_Driver/Src/stm32l4xx_hal_dac.c **** }
 796              		.loc 1 1075 1 is_stmt 0 view .LVU220
 797 0000 7047     		bx	lr
 798              		.cfi_endproc
 799              	.LFE142:
 801              		.section	.text.DAC_DMAConvCpltCh1,"ax",%progbits
 802              		.align	1
 803              		.global	DAC_DMAConvCpltCh1
 804              		.syntax unified
 805              		.thumb
 806              		.thumb_func
 807              		.fpu fpv4-sp-d16
 809              	DAC_DMAConvCpltCh1:
 810              	.LVL54:
 811              	.LFB150:
1076:Drivers/STM32L4xx_HAL_Driver/Src/stm32l4xx_hal_dac.c **** 
1077:Drivers/STM32L4xx_HAL_Driver/Src/stm32l4xx_hal_dac.c **** /**
1078:Drivers/STM32L4xx_HAL_Driver/Src/stm32l4xx_hal_dac.c ****   * @brief  Conversion half DMA transfer callback in non-blocking mode for Channel1
1079:Drivers/STM32L4xx_HAL_Driver/Src/stm32l4xx_hal_dac.c ****   * @param  hdac pointer to a DAC_HandleTypeDef structure that contains
1080:Drivers/STM32L4xx_HAL_Driver/Src/stm32l4xx_hal_dac.c ****   *         the configuration information for the specified DAC.
1081:Drivers/STM32L4xx_HAL_Driver/Src/stm32l4xx_hal_dac.c ****   * @retval None
1082:Drivers/STM32L4xx_HAL_Driver/Src/stm32l4xx_hal_dac.c ****   */
1083:Drivers/STM32L4xx_HAL_Driver/Src/stm32l4xx_hal_dac.c **** __weak void HAL_DAC_ConvHalfCpltCallbackCh1(DAC_HandleTypeDef *hdac)
1084:Drivers/STM32L4xx_HAL_Driver/Src/stm32l4xx_hal_dac.c **** {
1085:Drivers/STM32L4xx_HAL_Driver/Src/stm32l4xx_hal_dac.c ****   /* Prevent unused argument(s) compilation warning */
1086:Drivers/STM32L4xx_HAL_Driver/Src/stm32l4xx_hal_dac.c ****   UNUSED(hdac);
1087:Drivers/STM32L4xx_HAL_Driver/Src/stm32l4xx_hal_dac.c **** 
1088:Drivers/STM32L4xx_HAL_Driver/Src/stm32l4xx_hal_dac.c ****   /* NOTE : This function should not be modified, when the callback is needed,
1089:Drivers/STM32L4xx_HAL_Driver/Src/stm32l4xx_hal_dac.c ****             the HAL_DAC_ConvHalfCpltCallbackCh1 could be implemented in the user file
1090:Drivers/STM32L4xx_HAL_Driver/Src/stm32l4xx_hal_dac.c ****    */
1091:Drivers/STM32L4xx_HAL_Driver/Src/stm32l4xx_hal_dac.c **** }
1092:Drivers/STM32L4xx_HAL_Driver/Src/stm32l4xx_hal_dac.c **** 
1093:Drivers/STM32L4xx_HAL_Driver/Src/stm32l4xx_hal_dac.c **** /**
1094:Drivers/STM32L4xx_HAL_Driver/Src/stm32l4xx_hal_dac.c ****   * @brief  Error DAC callback for Channel1.
1095:Drivers/STM32L4xx_HAL_Driver/Src/stm32l4xx_hal_dac.c ****   * @param  hdac pointer to a DAC_HandleTypeDef structure that contains
1096:Drivers/STM32L4xx_HAL_Driver/Src/stm32l4xx_hal_dac.c ****   *         the configuration information for the specified DAC.
1097:Drivers/STM32L4xx_HAL_Driver/Src/stm32l4xx_hal_dac.c ****   * @retval None
1098:Drivers/STM32L4xx_HAL_Driver/Src/stm32l4xx_hal_dac.c ****   */
1099:Drivers/STM32L4xx_HAL_Driver/Src/stm32l4xx_hal_dac.c **** __weak void HAL_DAC_ErrorCallbackCh1(DAC_HandleTypeDef *hdac)
1100:Drivers/STM32L4xx_HAL_Driver/Src/stm32l4xx_hal_dac.c **** {
1101:Drivers/STM32L4xx_HAL_Driver/Src/stm32l4xx_hal_dac.c ****   /* Prevent unused argument(s) compilation warning */
1102:Drivers/STM32L4xx_HAL_Driver/Src/stm32l4xx_hal_dac.c ****   UNUSED(hdac);
1103:Drivers/STM32L4xx_HAL_Driver/Src/stm32l4xx_hal_dac.c **** 
1104:Drivers/STM32L4xx_HAL_Driver/Src/stm32l4xx_hal_dac.c ****   /* NOTE : This function should not be modified, when the callback is needed,
1105:Drivers/STM32L4xx_HAL_Driver/Src/stm32l4xx_hal_dac.c ****             the HAL_DAC_ErrorCallbackCh1 could be implemented in the user file
1106:Drivers/STM32L4xx_HAL_Driver/Src/stm32l4xx_hal_dac.c ****    */
ARM GAS  /tmp/cc4ENhcr.s 			page 36


1107:Drivers/STM32L4xx_HAL_Driver/Src/stm32l4xx_hal_dac.c **** }
1108:Drivers/STM32L4xx_HAL_Driver/Src/stm32l4xx_hal_dac.c **** 
1109:Drivers/STM32L4xx_HAL_Driver/Src/stm32l4xx_hal_dac.c **** /**
1110:Drivers/STM32L4xx_HAL_Driver/Src/stm32l4xx_hal_dac.c ****   * @brief  DMA underrun DAC callback for channel1.
1111:Drivers/STM32L4xx_HAL_Driver/Src/stm32l4xx_hal_dac.c ****   * @param  hdac pointer to a DAC_HandleTypeDef structure that contains
1112:Drivers/STM32L4xx_HAL_Driver/Src/stm32l4xx_hal_dac.c ****   *         the configuration information for the specified DAC.
1113:Drivers/STM32L4xx_HAL_Driver/Src/stm32l4xx_hal_dac.c ****   * @retval None
1114:Drivers/STM32L4xx_HAL_Driver/Src/stm32l4xx_hal_dac.c ****   */
1115:Drivers/STM32L4xx_HAL_Driver/Src/stm32l4xx_hal_dac.c **** __weak void HAL_DAC_DMAUnderrunCallbackCh1(DAC_HandleTypeDef *hdac)
1116:Drivers/STM32L4xx_HAL_Driver/Src/stm32l4xx_hal_dac.c **** {
1117:Drivers/STM32L4xx_HAL_Driver/Src/stm32l4xx_hal_dac.c ****   /* Prevent unused argument(s) compilation warning */
1118:Drivers/STM32L4xx_HAL_Driver/Src/stm32l4xx_hal_dac.c ****   UNUSED(hdac);
1119:Drivers/STM32L4xx_HAL_Driver/Src/stm32l4xx_hal_dac.c **** 
1120:Drivers/STM32L4xx_HAL_Driver/Src/stm32l4xx_hal_dac.c ****   /* NOTE : This function should not be modified, when the callback is needed,
1121:Drivers/STM32L4xx_HAL_Driver/Src/stm32l4xx_hal_dac.c ****             the HAL_DAC_DMAUnderrunCallbackCh1 could be implemented in the user file
1122:Drivers/STM32L4xx_HAL_Driver/Src/stm32l4xx_hal_dac.c ****    */
1123:Drivers/STM32L4xx_HAL_Driver/Src/stm32l4xx_hal_dac.c **** }
1124:Drivers/STM32L4xx_HAL_Driver/Src/stm32l4xx_hal_dac.c **** 
1125:Drivers/STM32L4xx_HAL_Driver/Src/stm32l4xx_hal_dac.c **** /**
1126:Drivers/STM32L4xx_HAL_Driver/Src/stm32l4xx_hal_dac.c ****   * @}
1127:Drivers/STM32L4xx_HAL_Driver/Src/stm32l4xx_hal_dac.c ****   */
1128:Drivers/STM32L4xx_HAL_Driver/Src/stm32l4xx_hal_dac.c **** 
1129:Drivers/STM32L4xx_HAL_Driver/Src/stm32l4xx_hal_dac.c **** /** @defgroup DAC_Exported_Functions_Group3 Peripheral Control functions
1130:Drivers/STM32L4xx_HAL_Driver/Src/stm32l4xx_hal_dac.c ****  *  @brief    Peripheral Control functions
1131:Drivers/STM32L4xx_HAL_Driver/Src/stm32l4xx_hal_dac.c ****  *
1132:Drivers/STM32L4xx_HAL_Driver/Src/stm32l4xx_hal_dac.c **** @verbatim
1133:Drivers/STM32L4xx_HAL_Driver/Src/stm32l4xx_hal_dac.c ****   ==============================================================================
1134:Drivers/STM32L4xx_HAL_Driver/Src/stm32l4xx_hal_dac.c ****              ##### Peripheral Control functions #####
1135:Drivers/STM32L4xx_HAL_Driver/Src/stm32l4xx_hal_dac.c ****   ==============================================================================
1136:Drivers/STM32L4xx_HAL_Driver/Src/stm32l4xx_hal_dac.c ****     [..]  This section provides functions allowing to:
1137:Drivers/STM32L4xx_HAL_Driver/Src/stm32l4xx_hal_dac.c ****       (+) Configure channels.
1138:Drivers/STM32L4xx_HAL_Driver/Src/stm32l4xx_hal_dac.c ****       (+) Set the specified data holding register value for DAC channel.
1139:Drivers/STM32L4xx_HAL_Driver/Src/stm32l4xx_hal_dac.c **** 
1140:Drivers/STM32L4xx_HAL_Driver/Src/stm32l4xx_hal_dac.c **** @endverbatim
1141:Drivers/STM32L4xx_HAL_Driver/Src/stm32l4xx_hal_dac.c ****   * @{
1142:Drivers/STM32L4xx_HAL_Driver/Src/stm32l4xx_hal_dac.c ****   */
1143:Drivers/STM32L4xx_HAL_Driver/Src/stm32l4xx_hal_dac.c **** 
1144:Drivers/STM32L4xx_HAL_Driver/Src/stm32l4xx_hal_dac.c **** /**
1145:Drivers/STM32L4xx_HAL_Driver/Src/stm32l4xx_hal_dac.c ****   * @brief  Returns the last data output value of the selected DAC channel.
1146:Drivers/STM32L4xx_HAL_Driver/Src/stm32l4xx_hal_dac.c ****   * @param  hdac pointer to a DAC_HandleTypeDef structure that contains
1147:Drivers/STM32L4xx_HAL_Driver/Src/stm32l4xx_hal_dac.c ****   *         the configuration information for the specified DAC.
1148:Drivers/STM32L4xx_HAL_Driver/Src/stm32l4xx_hal_dac.c ****   * @param  Channel The selected DAC channel.
1149:Drivers/STM32L4xx_HAL_Driver/Src/stm32l4xx_hal_dac.c ****   *          This parameter can be one of the following values:
1150:Drivers/STM32L4xx_HAL_Driver/Src/stm32l4xx_hal_dac.c ****   *            @arg DAC_CHANNEL_1: DAC Channel1 selected
1151:Drivers/STM32L4xx_HAL_Driver/Src/stm32l4xx_hal_dac.c ****   *            @arg DAC_CHANNEL_2: DAC Channel2 selected
1152:Drivers/STM32L4xx_HAL_Driver/Src/stm32l4xx_hal_dac.c ****   * @retval The selected DAC channel data output value.
1153:Drivers/STM32L4xx_HAL_Driver/Src/stm32l4xx_hal_dac.c ****   */
1154:Drivers/STM32L4xx_HAL_Driver/Src/stm32l4xx_hal_dac.c **** uint32_t HAL_DAC_GetValue(DAC_HandleTypeDef *hdac, uint32_t Channel)
1155:Drivers/STM32L4xx_HAL_Driver/Src/stm32l4xx_hal_dac.c **** {
1156:Drivers/STM32L4xx_HAL_Driver/Src/stm32l4xx_hal_dac.c ****   /* Check the parameters */
1157:Drivers/STM32L4xx_HAL_Driver/Src/stm32l4xx_hal_dac.c ****   assert_param(IS_DAC_CHANNEL(Channel));
1158:Drivers/STM32L4xx_HAL_Driver/Src/stm32l4xx_hal_dac.c **** 
1159:Drivers/STM32L4xx_HAL_Driver/Src/stm32l4xx_hal_dac.c ****   /* Returns the DAC channel data output register value */
1160:Drivers/STM32L4xx_HAL_Driver/Src/stm32l4xx_hal_dac.c **** #if defined (STM32L451xx) || defined (STM32L452xx) || defined (STM32L462xx)
1161:Drivers/STM32L4xx_HAL_Driver/Src/stm32l4xx_hal_dac.c ****   /* Prevent unused argument(s) compilation warning if no assert_param check */
1162:Drivers/STM32L4xx_HAL_Driver/Src/stm32l4xx_hal_dac.c ****   UNUSED(Channel);
1163:Drivers/STM32L4xx_HAL_Driver/Src/stm32l4xx_hal_dac.c **** 
ARM GAS  /tmp/cc4ENhcr.s 			page 37


1164:Drivers/STM32L4xx_HAL_Driver/Src/stm32l4xx_hal_dac.c ****   return hdac->Instance->DOR1;
1165:Drivers/STM32L4xx_HAL_Driver/Src/stm32l4xx_hal_dac.c **** #endif /* STM32L451xx STM32L452xx STM32L462xx */
1166:Drivers/STM32L4xx_HAL_Driver/Src/stm32l4xx_hal_dac.c **** 
1167:Drivers/STM32L4xx_HAL_Driver/Src/stm32l4xx_hal_dac.c **** #if defined (STM32L431xx) || defined (STM32L432xx) || defined (STM32L433xx) || defined (STM32L442xx
1168:Drivers/STM32L4xx_HAL_Driver/Src/stm32l4xx_hal_dac.c ****     defined (STM32L471xx) || defined (STM32L475xx) || defined (STM32L476xx) || defined (STM32L485xx
1169:Drivers/STM32L4xx_HAL_Driver/Src/stm32l4xx_hal_dac.c ****     defined (STM32L4P5xx) || defined (STM32L4Q5xx) || \
1170:Drivers/STM32L4xx_HAL_Driver/Src/stm32l4xx_hal_dac.c ****     defined (STM32L4R5xx) || defined (STM32L4R7xx) || defined (STM32L4R9xx) || defined (STM32L4S5xx
1171:Drivers/STM32L4xx_HAL_Driver/Src/stm32l4xx_hal_dac.c ****   if(Channel == DAC_CHANNEL_1)
1172:Drivers/STM32L4xx_HAL_Driver/Src/stm32l4xx_hal_dac.c ****   {
1173:Drivers/STM32L4xx_HAL_Driver/Src/stm32l4xx_hal_dac.c ****     return hdac->Instance->DOR1;
1174:Drivers/STM32L4xx_HAL_Driver/Src/stm32l4xx_hal_dac.c ****   }
1175:Drivers/STM32L4xx_HAL_Driver/Src/stm32l4xx_hal_dac.c ****   else
1176:Drivers/STM32L4xx_HAL_Driver/Src/stm32l4xx_hal_dac.c ****   {
1177:Drivers/STM32L4xx_HAL_Driver/Src/stm32l4xx_hal_dac.c ****     return hdac->Instance->DOR2;
1178:Drivers/STM32L4xx_HAL_Driver/Src/stm32l4xx_hal_dac.c ****   }
1179:Drivers/STM32L4xx_HAL_Driver/Src/stm32l4xx_hal_dac.c **** #endif  /* STM32L431xx STM32L432xx STM32L433xx STM32L442xx STM32L443xx                         */
1180:Drivers/STM32L4xx_HAL_Driver/Src/stm32l4xx_hal_dac.c ****         /* STM32L471xx STM32L475xx STM32L476xx STM32L485xx STM32L486xx STM32L496xx STM32L4A6xx */
1181:Drivers/STM32L4xx_HAL_Driver/Src/stm32l4xx_hal_dac.c ****         /* STM32L4P5xx STM32L4Q5xx                                                             */
1182:Drivers/STM32L4xx_HAL_Driver/Src/stm32l4xx_hal_dac.c ****         /* STM32L4R5xx STM32L4R7xx STM32L4R9xx STM32L4S5xx STM32L4S7xx STM32L4S9xx             */
1183:Drivers/STM32L4xx_HAL_Driver/Src/stm32l4xx_hal_dac.c **** }
1184:Drivers/STM32L4xx_HAL_Driver/Src/stm32l4xx_hal_dac.c **** 
1185:Drivers/STM32L4xx_HAL_Driver/Src/stm32l4xx_hal_dac.c **** /**
1186:Drivers/STM32L4xx_HAL_Driver/Src/stm32l4xx_hal_dac.c ****   * @brief  Configures the selected DAC channel.
1187:Drivers/STM32L4xx_HAL_Driver/Src/stm32l4xx_hal_dac.c ****   * @note   By calling this function, the high frequency interface mode (HFSEL bits)
1188:Drivers/STM32L4xx_HAL_Driver/Src/stm32l4xx_hal_dac.c ****   *         will be set. This parameter scope is the DAC instance. As the function
1189:Drivers/STM32L4xx_HAL_Driver/Src/stm32l4xx_hal_dac.c ****   *         is called for each channel, the @ref DAC_HighFrequency of @arg sConfig
1190:Drivers/STM32L4xx_HAL_Driver/Src/stm32l4xx_hal_dac.c ****   *         must be the same at each call.
1191:Drivers/STM32L4xx_HAL_Driver/Src/stm32l4xx_hal_dac.c ****   *         (or DAC_HIGH_FREQUENCY_INTERFACE_MODE_AUTOMATIC self detect).
1192:Drivers/STM32L4xx_HAL_Driver/Src/stm32l4xx_hal_dac.c ****   * @param  hdac pointer to a DAC_HandleTypeDef structure that contains
1193:Drivers/STM32L4xx_HAL_Driver/Src/stm32l4xx_hal_dac.c ****   *         the configuration information for the specified DAC.
1194:Drivers/STM32L4xx_HAL_Driver/Src/stm32l4xx_hal_dac.c ****   * @param  sConfig DAC configuration structure.
1195:Drivers/STM32L4xx_HAL_Driver/Src/stm32l4xx_hal_dac.c ****   * @param  Channel The selected DAC channel.
1196:Drivers/STM32L4xx_HAL_Driver/Src/stm32l4xx_hal_dac.c ****   *          This parameter can be one of the following values:
1197:Drivers/STM32L4xx_HAL_Driver/Src/stm32l4xx_hal_dac.c ****   *            @arg DAC_CHANNEL_1: DAC Channel1 selected
1198:Drivers/STM32L4xx_HAL_Driver/Src/stm32l4xx_hal_dac.c ****   *            @arg DAC_CHANNEL_2: DAC Channel2 selected (Whenever present)
1199:Drivers/STM32L4xx_HAL_Driver/Src/stm32l4xx_hal_dac.c ****   * @retval HAL status
1200:Drivers/STM32L4xx_HAL_Driver/Src/stm32l4xx_hal_dac.c ****   */
1201:Drivers/STM32L4xx_HAL_Driver/Src/stm32l4xx_hal_dac.c **** HAL_StatusTypeDef HAL_DAC_ConfigChannel(DAC_HandleTypeDef *hdac, DAC_ChannelConfTypeDef *sConfig, u
1202:Drivers/STM32L4xx_HAL_Driver/Src/stm32l4xx_hal_dac.c **** {
1203:Drivers/STM32L4xx_HAL_Driver/Src/stm32l4xx_hal_dac.c ****   uint32_t tmpreg1;
1204:Drivers/STM32L4xx_HAL_Driver/Src/stm32l4xx_hal_dac.c ****   uint32_t tmpreg2;
1205:Drivers/STM32L4xx_HAL_Driver/Src/stm32l4xx_hal_dac.c ****   uint32_t tickstart = 0U;
1206:Drivers/STM32L4xx_HAL_Driver/Src/stm32l4xx_hal_dac.c **** #if defined (STM32L4P5xx) || defined (STM32L4Q5xx) || defined (STM32L4R5xx) || defined (STM32L4R7xx
1207:Drivers/STM32L4xx_HAL_Driver/Src/stm32l4xx_hal_dac.c ****   uint32_t hclkfreq;
1208:Drivers/STM32L4xx_HAL_Driver/Src/stm32l4xx_hal_dac.c **** #endif /* STM32L4P5xx STM32L4Q5xx STM32L4R5xx STM32L4R7xx STM32L4R9xx STM32L4S5xx STM32L4S7xx STM32
1209:Drivers/STM32L4xx_HAL_Driver/Src/stm32l4xx_hal_dac.c **** 
1210:Drivers/STM32L4xx_HAL_Driver/Src/stm32l4xx_hal_dac.c ****   /* Check the DAC parameters */
1211:Drivers/STM32L4xx_HAL_Driver/Src/stm32l4xx_hal_dac.c **** #if defined (STM32L4P5xx) || defined (STM32L4Q5xx) || defined (STM32L4R5xx) || defined (STM32L4R7xx
1212:Drivers/STM32L4xx_HAL_Driver/Src/stm32l4xx_hal_dac.c ****   assert_param(IS_DAC_HIGH_FREQUENCY_MODE(sConfig->DAC_HighFrequency));
1213:Drivers/STM32L4xx_HAL_Driver/Src/stm32l4xx_hal_dac.c **** #endif /* STM32L4P5xx STM32L4Q5xx STM32L4R5xx STM32L4R7xx STM32L4R9xx STM32L4S5xx STM32L4S7xx STM32
1214:Drivers/STM32L4xx_HAL_Driver/Src/stm32l4xx_hal_dac.c ****   assert_param(IS_DAC_TRIGGER(sConfig->DAC_Trigger));
1215:Drivers/STM32L4xx_HAL_Driver/Src/stm32l4xx_hal_dac.c ****   assert_param(IS_DAC_OUTPUT_BUFFER_STATE(sConfig->DAC_OutputBuffer));
1216:Drivers/STM32L4xx_HAL_Driver/Src/stm32l4xx_hal_dac.c ****   assert_param(IS_DAC_CHIP_CONNECTION(sConfig->DAC_ConnectOnChipPeripheral));
1217:Drivers/STM32L4xx_HAL_Driver/Src/stm32l4xx_hal_dac.c ****   assert_param(IS_DAC_TRIMMING(sConfig->DAC_UserTrimming));
1218:Drivers/STM32L4xx_HAL_Driver/Src/stm32l4xx_hal_dac.c ****   if ((sConfig->DAC_UserTrimming) == DAC_TRIMMING_USER)
1219:Drivers/STM32L4xx_HAL_Driver/Src/stm32l4xx_hal_dac.c ****   {
1220:Drivers/STM32L4xx_HAL_Driver/Src/stm32l4xx_hal_dac.c ****     assert_param(IS_DAC_TRIMMINGVALUE(sConfig->DAC_TrimmingValue));
ARM GAS  /tmp/cc4ENhcr.s 			page 38


1221:Drivers/STM32L4xx_HAL_Driver/Src/stm32l4xx_hal_dac.c ****   }
1222:Drivers/STM32L4xx_HAL_Driver/Src/stm32l4xx_hal_dac.c ****   assert_param(IS_DAC_SAMPLEANDHOLD(sConfig->DAC_SampleAndHold));
1223:Drivers/STM32L4xx_HAL_Driver/Src/stm32l4xx_hal_dac.c ****   if ((sConfig->DAC_SampleAndHold) == DAC_SAMPLEANDHOLD_ENABLE)
1224:Drivers/STM32L4xx_HAL_Driver/Src/stm32l4xx_hal_dac.c ****   {
1225:Drivers/STM32L4xx_HAL_Driver/Src/stm32l4xx_hal_dac.c ****     assert_param(IS_DAC_SAMPLETIME(sConfig->DAC_SampleAndHoldConfig.DAC_SampleTime));
1226:Drivers/STM32L4xx_HAL_Driver/Src/stm32l4xx_hal_dac.c ****     assert_param(IS_DAC_HOLDTIME(sConfig->DAC_SampleAndHoldConfig.DAC_HoldTime));
1227:Drivers/STM32L4xx_HAL_Driver/Src/stm32l4xx_hal_dac.c ****     assert_param(IS_DAC_REFRESHTIME(sConfig->DAC_SampleAndHoldConfig.DAC_RefreshTime));
1228:Drivers/STM32L4xx_HAL_Driver/Src/stm32l4xx_hal_dac.c ****   }
1229:Drivers/STM32L4xx_HAL_Driver/Src/stm32l4xx_hal_dac.c ****   assert_param(IS_DAC_CHANNEL(Channel));
1230:Drivers/STM32L4xx_HAL_Driver/Src/stm32l4xx_hal_dac.c **** 
1231:Drivers/STM32L4xx_HAL_Driver/Src/stm32l4xx_hal_dac.c ****   /* Process locked */
1232:Drivers/STM32L4xx_HAL_Driver/Src/stm32l4xx_hal_dac.c ****   __HAL_LOCK(hdac);
1233:Drivers/STM32L4xx_HAL_Driver/Src/stm32l4xx_hal_dac.c **** 
1234:Drivers/STM32L4xx_HAL_Driver/Src/stm32l4xx_hal_dac.c ****   /* Change DAC state */
1235:Drivers/STM32L4xx_HAL_Driver/Src/stm32l4xx_hal_dac.c ****   hdac->State = HAL_DAC_STATE_BUSY;
1236:Drivers/STM32L4xx_HAL_Driver/Src/stm32l4xx_hal_dac.c **** 
1237:Drivers/STM32L4xx_HAL_Driver/Src/stm32l4xx_hal_dac.c ****   if (sConfig->DAC_SampleAndHold == DAC_SAMPLEANDHOLD_ENABLE)
1238:Drivers/STM32L4xx_HAL_Driver/Src/stm32l4xx_hal_dac.c ****   /* Sample on old configuration */
1239:Drivers/STM32L4xx_HAL_Driver/Src/stm32l4xx_hal_dac.c ****   {
1240:Drivers/STM32L4xx_HAL_Driver/Src/stm32l4xx_hal_dac.c ****     /* Get timeout */
1241:Drivers/STM32L4xx_HAL_Driver/Src/stm32l4xx_hal_dac.c ****     tickstart = HAL_GetTick();
1242:Drivers/STM32L4xx_HAL_Driver/Src/stm32l4xx_hal_dac.c **** 
1243:Drivers/STM32L4xx_HAL_Driver/Src/stm32l4xx_hal_dac.c ****     if (Channel == DAC_CHANNEL_1)
1244:Drivers/STM32L4xx_HAL_Driver/Src/stm32l4xx_hal_dac.c ****     {
1245:Drivers/STM32L4xx_HAL_Driver/Src/stm32l4xx_hal_dac.c **** 
1246:Drivers/STM32L4xx_HAL_Driver/Src/stm32l4xx_hal_dac.c ****       /* SHSR1 can be written when BWST1 is cleared */
1247:Drivers/STM32L4xx_HAL_Driver/Src/stm32l4xx_hal_dac.c ****       while (((hdac->Instance->SR) & DAC_SR_BWST1) != 0UL)
1248:Drivers/STM32L4xx_HAL_Driver/Src/stm32l4xx_hal_dac.c ****       {
1249:Drivers/STM32L4xx_HAL_Driver/Src/stm32l4xx_hal_dac.c ****         /* Check for the Timeout */
1250:Drivers/STM32L4xx_HAL_Driver/Src/stm32l4xx_hal_dac.c ****         if ((HAL_GetTick() - tickstart) > TIMEOUT_DAC_CALIBCONFIG)
1251:Drivers/STM32L4xx_HAL_Driver/Src/stm32l4xx_hal_dac.c ****         {
1252:Drivers/STM32L4xx_HAL_Driver/Src/stm32l4xx_hal_dac.c ****           /* Update error code */
1253:Drivers/STM32L4xx_HAL_Driver/Src/stm32l4xx_hal_dac.c ****           SET_BIT(hdac->ErrorCode, HAL_DAC_ERROR_TIMEOUT);
1254:Drivers/STM32L4xx_HAL_Driver/Src/stm32l4xx_hal_dac.c **** 
1255:Drivers/STM32L4xx_HAL_Driver/Src/stm32l4xx_hal_dac.c ****           /* Change the DMA state */
1256:Drivers/STM32L4xx_HAL_Driver/Src/stm32l4xx_hal_dac.c ****           hdac->State = HAL_DAC_STATE_TIMEOUT;
1257:Drivers/STM32L4xx_HAL_Driver/Src/stm32l4xx_hal_dac.c **** 
1258:Drivers/STM32L4xx_HAL_Driver/Src/stm32l4xx_hal_dac.c ****           return HAL_TIMEOUT;
1259:Drivers/STM32L4xx_HAL_Driver/Src/stm32l4xx_hal_dac.c ****         }
1260:Drivers/STM32L4xx_HAL_Driver/Src/stm32l4xx_hal_dac.c ****       }
1261:Drivers/STM32L4xx_HAL_Driver/Src/stm32l4xx_hal_dac.c ****       HAL_Delay(1);
1262:Drivers/STM32L4xx_HAL_Driver/Src/stm32l4xx_hal_dac.c ****       hdac->Instance->SHSR1 = sConfig->DAC_SampleAndHoldConfig.DAC_SampleTime;
1263:Drivers/STM32L4xx_HAL_Driver/Src/stm32l4xx_hal_dac.c ****     }
1264:Drivers/STM32L4xx_HAL_Driver/Src/stm32l4xx_hal_dac.c **** #if !defined (STM32L451xx) & !defined (STM32L452xx) & !defined (STM32L462xx)
1265:Drivers/STM32L4xx_HAL_Driver/Src/stm32l4xx_hal_dac.c ****     else /* Channel 2 */
1266:Drivers/STM32L4xx_HAL_Driver/Src/stm32l4xx_hal_dac.c ****     {
1267:Drivers/STM32L4xx_HAL_Driver/Src/stm32l4xx_hal_dac.c ****       /* SHSR2 can be written when BWST2 is cleared */
1268:Drivers/STM32L4xx_HAL_Driver/Src/stm32l4xx_hal_dac.c **** 
1269:Drivers/STM32L4xx_HAL_Driver/Src/stm32l4xx_hal_dac.c ****       while (((hdac->Instance->SR) & DAC_SR_BWST2) != 0UL)
1270:Drivers/STM32L4xx_HAL_Driver/Src/stm32l4xx_hal_dac.c ****       {
1271:Drivers/STM32L4xx_HAL_Driver/Src/stm32l4xx_hal_dac.c ****         /* Check for the Timeout */
1272:Drivers/STM32L4xx_HAL_Driver/Src/stm32l4xx_hal_dac.c ****         if ((HAL_GetTick() - tickstart) > TIMEOUT_DAC_CALIBCONFIG)
1273:Drivers/STM32L4xx_HAL_Driver/Src/stm32l4xx_hal_dac.c ****         {
1274:Drivers/STM32L4xx_HAL_Driver/Src/stm32l4xx_hal_dac.c ****           /* Update error code */
1275:Drivers/STM32L4xx_HAL_Driver/Src/stm32l4xx_hal_dac.c ****           SET_BIT(hdac->ErrorCode, HAL_DAC_ERROR_TIMEOUT);
1276:Drivers/STM32L4xx_HAL_Driver/Src/stm32l4xx_hal_dac.c **** 
1277:Drivers/STM32L4xx_HAL_Driver/Src/stm32l4xx_hal_dac.c ****           /* Change the DMA state */
ARM GAS  /tmp/cc4ENhcr.s 			page 39


1278:Drivers/STM32L4xx_HAL_Driver/Src/stm32l4xx_hal_dac.c ****           hdac->State = HAL_DAC_STATE_TIMEOUT;
1279:Drivers/STM32L4xx_HAL_Driver/Src/stm32l4xx_hal_dac.c **** 
1280:Drivers/STM32L4xx_HAL_Driver/Src/stm32l4xx_hal_dac.c ****           return HAL_TIMEOUT;
1281:Drivers/STM32L4xx_HAL_Driver/Src/stm32l4xx_hal_dac.c ****         }
1282:Drivers/STM32L4xx_HAL_Driver/Src/stm32l4xx_hal_dac.c ****       }
1283:Drivers/STM32L4xx_HAL_Driver/Src/stm32l4xx_hal_dac.c ****       HAL_Delay(1U);
1284:Drivers/STM32L4xx_HAL_Driver/Src/stm32l4xx_hal_dac.c ****       hdac->Instance->SHSR2 = sConfig->DAC_SampleAndHoldConfig.DAC_SampleTime;
1285:Drivers/STM32L4xx_HAL_Driver/Src/stm32l4xx_hal_dac.c ****     }
1286:Drivers/STM32L4xx_HAL_Driver/Src/stm32l4xx_hal_dac.c **** #endif /* STM32L451xx STM32L452xx STM32L462xx */
1287:Drivers/STM32L4xx_HAL_Driver/Src/stm32l4xx_hal_dac.c **** 
1288:Drivers/STM32L4xx_HAL_Driver/Src/stm32l4xx_hal_dac.c ****     /* HoldTime */
1289:Drivers/STM32L4xx_HAL_Driver/Src/stm32l4xx_hal_dac.c ****     MODIFY_REG(hdac->Instance->SHHR, DAC_SHHR_THOLD1 << (Channel & 0x10UL), (sConfig->DAC_SampleAnd
1290:Drivers/STM32L4xx_HAL_Driver/Src/stm32l4xx_hal_dac.c ****     /* RefreshTime */
1291:Drivers/STM32L4xx_HAL_Driver/Src/stm32l4xx_hal_dac.c ****     MODIFY_REG(hdac->Instance->SHRR, DAC_SHRR_TREFRESH1 << (Channel & 0x10UL), (sConfig->DAC_Sample
1292:Drivers/STM32L4xx_HAL_Driver/Src/stm32l4xx_hal_dac.c ****   }
1293:Drivers/STM32L4xx_HAL_Driver/Src/stm32l4xx_hal_dac.c **** 
1294:Drivers/STM32L4xx_HAL_Driver/Src/stm32l4xx_hal_dac.c ****   if (sConfig->DAC_UserTrimming == DAC_TRIMMING_USER)
1295:Drivers/STM32L4xx_HAL_Driver/Src/stm32l4xx_hal_dac.c ****   /* USER TRIMMING */
1296:Drivers/STM32L4xx_HAL_Driver/Src/stm32l4xx_hal_dac.c ****   {
1297:Drivers/STM32L4xx_HAL_Driver/Src/stm32l4xx_hal_dac.c ****     /* Get the DAC CCR value */
1298:Drivers/STM32L4xx_HAL_Driver/Src/stm32l4xx_hal_dac.c ****     tmpreg1 = hdac->Instance->CCR;
1299:Drivers/STM32L4xx_HAL_Driver/Src/stm32l4xx_hal_dac.c ****     /* Clear trimming value */
1300:Drivers/STM32L4xx_HAL_Driver/Src/stm32l4xx_hal_dac.c ****     tmpreg1 &= ~(((uint32_t)(DAC_CCR_OTRIM1)) << (Channel & 0x10UL));
1301:Drivers/STM32L4xx_HAL_Driver/Src/stm32l4xx_hal_dac.c ****     /* Configure for the selected trimming offset */
1302:Drivers/STM32L4xx_HAL_Driver/Src/stm32l4xx_hal_dac.c ****     tmpreg2 = sConfig->DAC_TrimmingValue;
1303:Drivers/STM32L4xx_HAL_Driver/Src/stm32l4xx_hal_dac.c ****     /* Calculate CCR register value depending on DAC_Channel */
1304:Drivers/STM32L4xx_HAL_Driver/Src/stm32l4xx_hal_dac.c ****     tmpreg1 |= tmpreg2 << (Channel & 0x10UL);
1305:Drivers/STM32L4xx_HAL_Driver/Src/stm32l4xx_hal_dac.c ****     /* Write to DAC CCR */
1306:Drivers/STM32L4xx_HAL_Driver/Src/stm32l4xx_hal_dac.c ****     hdac->Instance->CCR = tmpreg1;
1307:Drivers/STM32L4xx_HAL_Driver/Src/stm32l4xx_hal_dac.c ****   }
1308:Drivers/STM32L4xx_HAL_Driver/Src/stm32l4xx_hal_dac.c ****   /* else factory trimming is used (factory setting are available at reset)*/
1309:Drivers/STM32L4xx_HAL_Driver/Src/stm32l4xx_hal_dac.c ****   /* SW Nothing has nothing to do */
1310:Drivers/STM32L4xx_HAL_Driver/Src/stm32l4xx_hal_dac.c **** 
1311:Drivers/STM32L4xx_HAL_Driver/Src/stm32l4xx_hal_dac.c ****   /* Get the DAC MCR value */
1312:Drivers/STM32L4xx_HAL_Driver/Src/stm32l4xx_hal_dac.c ****   tmpreg1 = hdac->Instance->MCR;
1313:Drivers/STM32L4xx_HAL_Driver/Src/stm32l4xx_hal_dac.c ****   /* Clear DAC_MCR_MODEx bits */
1314:Drivers/STM32L4xx_HAL_Driver/Src/stm32l4xx_hal_dac.c ****   tmpreg1 &= ~(((uint32_t)(DAC_MCR_MODE1)) << (Channel & 0x10UL));
1315:Drivers/STM32L4xx_HAL_Driver/Src/stm32l4xx_hal_dac.c ****   /* Configure for the selected DAC channel: mode, buffer output & on chip peripheral connect */
1316:Drivers/STM32L4xx_HAL_Driver/Src/stm32l4xx_hal_dac.c ****   tmpreg2 = (sConfig->DAC_SampleAndHold | sConfig->DAC_OutputBuffer | sConfig->DAC_ConnectOnChipPer
1317:Drivers/STM32L4xx_HAL_Driver/Src/stm32l4xx_hal_dac.c ****   /* Calculate MCR register value depending on DAC_Channel */
1318:Drivers/STM32L4xx_HAL_Driver/Src/stm32l4xx_hal_dac.c ****   tmpreg1 |= tmpreg2 << (Channel & 0x10UL);
1319:Drivers/STM32L4xx_HAL_Driver/Src/stm32l4xx_hal_dac.c ****   /* Write to DAC MCR */
1320:Drivers/STM32L4xx_HAL_Driver/Src/stm32l4xx_hal_dac.c ****   hdac->Instance->MCR = tmpreg1;
1321:Drivers/STM32L4xx_HAL_Driver/Src/stm32l4xx_hal_dac.c **** 
1322:Drivers/STM32L4xx_HAL_Driver/Src/stm32l4xx_hal_dac.c ****   /* DAC in normal operating mode hence clear DAC_CR_CENx bit */
1323:Drivers/STM32L4xx_HAL_Driver/Src/stm32l4xx_hal_dac.c ****   CLEAR_BIT(hdac->Instance->CR, DAC_CR_CEN1 << (Channel & 0x10UL));
1324:Drivers/STM32L4xx_HAL_Driver/Src/stm32l4xx_hal_dac.c **** 
1325:Drivers/STM32L4xx_HAL_Driver/Src/stm32l4xx_hal_dac.c ****   /* Get the DAC CR value */
1326:Drivers/STM32L4xx_HAL_Driver/Src/stm32l4xx_hal_dac.c ****   tmpreg1 = hdac->Instance->CR;
1327:Drivers/STM32L4xx_HAL_Driver/Src/stm32l4xx_hal_dac.c ****   /* Clear TENx, TSELx, WAVEx and MAMPx bits */
1328:Drivers/STM32L4xx_HAL_Driver/Src/stm32l4xx_hal_dac.c ****   tmpreg1 &= ~(((uint32_t)(DAC_CR_MAMP1 | DAC_CR_WAVE1 | DAC_CR_TSEL1 | DAC_CR_TEN1)) << (Channel &
1329:Drivers/STM32L4xx_HAL_Driver/Src/stm32l4xx_hal_dac.c ****   /* Configure for the selected DAC channel: trigger */
1330:Drivers/STM32L4xx_HAL_Driver/Src/stm32l4xx_hal_dac.c ****   /* Set TSELx and TENx bits according to DAC_Trigger value */
1331:Drivers/STM32L4xx_HAL_Driver/Src/stm32l4xx_hal_dac.c ****   tmpreg2 = sConfig->DAC_Trigger;
1332:Drivers/STM32L4xx_HAL_Driver/Src/stm32l4xx_hal_dac.c ****   /* Calculate CR register value depending on DAC_Channel */
1333:Drivers/STM32L4xx_HAL_Driver/Src/stm32l4xx_hal_dac.c ****   tmpreg1 |= tmpreg2 << (Channel & 0x10UL);
1334:Drivers/STM32L4xx_HAL_Driver/Src/stm32l4xx_hal_dac.c **** #if defined (STM32L4P5xx) || defined (STM32L4Q5xx) || defined (STM32L4R5xx) || defined (STM32L4R7xx
ARM GAS  /tmp/cc4ENhcr.s 			page 40


1335:Drivers/STM32L4xx_HAL_Driver/Src/stm32l4xx_hal_dac.c ****   if (DAC_HIGH_FREQUENCY_INTERFACE_MODE_ABOVE_80MHZ == sConfig->DAC_HighFrequency)
1336:Drivers/STM32L4xx_HAL_Driver/Src/stm32l4xx_hal_dac.c ****   {
1337:Drivers/STM32L4xx_HAL_Driver/Src/stm32l4xx_hal_dac.c ****     tmpreg1 |= DAC_CR_HFSEL;
1338:Drivers/STM32L4xx_HAL_Driver/Src/stm32l4xx_hal_dac.c ****   }
1339:Drivers/STM32L4xx_HAL_Driver/Src/stm32l4xx_hal_dac.c ****   else
1340:Drivers/STM32L4xx_HAL_Driver/Src/stm32l4xx_hal_dac.c ****   {
1341:Drivers/STM32L4xx_HAL_Driver/Src/stm32l4xx_hal_dac.c ****     if (DAC_HIGH_FREQUENCY_INTERFACE_MODE_DISABLE == sConfig->DAC_HighFrequency)
1342:Drivers/STM32L4xx_HAL_Driver/Src/stm32l4xx_hal_dac.c ****     {
1343:Drivers/STM32L4xx_HAL_Driver/Src/stm32l4xx_hal_dac.c ****       tmpreg1 &= ~(DAC_CR_HFSEL);
1344:Drivers/STM32L4xx_HAL_Driver/Src/stm32l4xx_hal_dac.c ****     }
1345:Drivers/STM32L4xx_HAL_Driver/Src/stm32l4xx_hal_dac.c ****     else /* Automatic selection */
1346:Drivers/STM32L4xx_HAL_Driver/Src/stm32l4xx_hal_dac.c ****     {
1347:Drivers/STM32L4xx_HAL_Driver/Src/stm32l4xx_hal_dac.c ****       hclkfreq = HAL_RCC_GetHCLKFreq();
1348:Drivers/STM32L4xx_HAL_Driver/Src/stm32l4xx_hal_dac.c ****       if (hclkfreq > HFSEL_ENABLE_THRESHOLD_80MHZ)
1349:Drivers/STM32L4xx_HAL_Driver/Src/stm32l4xx_hal_dac.c ****       {
1350:Drivers/STM32L4xx_HAL_Driver/Src/stm32l4xx_hal_dac.c ****         /* High frequency enable when HCLK frequency higher than 80   */
1351:Drivers/STM32L4xx_HAL_Driver/Src/stm32l4xx_hal_dac.c ****          tmpreg1 |= DAC_CR_HFSEL;
1352:Drivers/STM32L4xx_HAL_Driver/Src/stm32l4xx_hal_dac.c ****       }
1353:Drivers/STM32L4xx_HAL_Driver/Src/stm32l4xx_hal_dac.c ****       else
1354:Drivers/STM32L4xx_HAL_Driver/Src/stm32l4xx_hal_dac.c ****       {
1355:Drivers/STM32L4xx_HAL_Driver/Src/stm32l4xx_hal_dac.c ****         /* High frequency disable when HCLK frequency higher than 80  */
1356:Drivers/STM32L4xx_HAL_Driver/Src/stm32l4xx_hal_dac.c ****         tmpreg1 &= ~(DAC_CR_HFSEL);
1357:Drivers/STM32L4xx_HAL_Driver/Src/stm32l4xx_hal_dac.c ****       }
1358:Drivers/STM32L4xx_HAL_Driver/Src/stm32l4xx_hal_dac.c ****     }
1359:Drivers/STM32L4xx_HAL_Driver/Src/stm32l4xx_hal_dac.c ****   }
1360:Drivers/STM32L4xx_HAL_Driver/Src/stm32l4xx_hal_dac.c **** 
1361:Drivers/STM32L4xx_HAL_Driver/Src/stm32l4xx_hal_dac.c **** #endif /* STM32L4P5xx STM32L4Q5xx STM32L4R5xx STM32L4R7xx STM32L4R9xx STM32L4S5xx STM32L4S7xx STM32
1362:Drivers/STM32L4xx_HAL_Driver/Src/stm32l4xx_hal_dac.c **** 
1363:Drivers/STM32L4xx_HAL_Driver/Src/stm32l4xx_hal_dac.c ****   /* Write to DAC CR */
1364:Drivers/STM32L4xx_HAL_Driver/Src/stm32l4xx_hal_dac.c ****   hdac->Instance->CR = tmpreg1;
1365:Drivers/STM32L4xx_HAL_Driver/Src/stm32l4xx_hal_dac.c ****   /* Disable wave generation */
1366:Drivers/STM32L4xx_HAL_Driver/Src/stm32l4xx_hal_dac.c ****   hdac->Instance->CR &= ~(DAC_CR_WAVE1 << (Channel & 0x10UL));
1367:Drivers/STM32L4xx_HAL_Driver/Src/stm32l4xx_hal_dac.c **** 
1368:Drivers/STM32L4xx_HAL_Driver/Src/stm32l4xx_hal_dac.c ****   /* Change DAC state */
1369:Drivers/STM32L4xx_HAL_Driver/Src/stm32l4xx_hal_dac.c ****   hdac->State = HAL_DAC_STATE_READY;
1370:Drivers/STM32L4xx_HAL_Driver/Src/stm32l4xx_hal_dac.c **** 
1371:Drivers/STM32L4xx_HAL_Driver/Src/stm32l4xx_hal_dac.c ****   /* Process unlocked */
1372:Drivers/STM32L4xx_HAL_Driver/Src/stm32l4xx_hal_dac.c ****   __HAL_UNLOCK(hdac);
1373:Drivers/STM32L4xx_HAL_Driver/Src/stm32l4xx_hal_dac.c **** 
1374:Drivers/STM32L4xx_HAL_Driver/Src/stm32l4xx_hal_dac.c ****   /* Return function status */
1375:Drivers/STM32L4xx_HAL_Driver/Src/stm32l4xx_hal_dac.c ****   return HAL_OK;
1376:Drivers/STM32L4xx_HAL_Driver/Src/stm32l4xx_hal_dac.c **** }
1377:Drivers/STM32L4xx_HAL_Driver/Src/stm32l4xx_hal_dac.c **** 
1378:Drivers/STM32L4xx_HAL_Driver/Src/stm32l4xx_hal_dac.c **** /**
1379:Drivers/STM32L4xx_HAL_Driver/Src/stm32l4xx_hal_dac.c ****   * @}
1380:Drivers/STM32L4xx_HAL_Driver/Src/stm32l4xx_hal_dac.c ****   */
1381:Drivers/STM32L4xx_HAL_Driver/Src/stm32l4xx_hal_dac.c **** 
1382:Drivers/STM32L4xx_HAL_Driver/Src/stm32l4xx_hal_dac.c **** /** @defgroup DAC_Exported_Functions_Group4 Peripheral State and Errors functions
1383:Drivers/STM32L4xx_HAL_Driver/Src/stm32l4xx_hal_dac.c ****  *  @brief   Peripheral State and Errors functions
1384:Drivers/STM32L4xx_HAL_Driver/Src/stm32l4xx_hal_dac.c ****  *
1385:Drivers/STM32L4xx_HAL_Driver/Src/stm32l4xx_hal_dac.c **** @verbatim
1386:Drivers/STM32L4xx_HAL_Driver/Src/stm32l4xx_hal_dac.c ****   ==============================================================================
1387:Drivers/STM32L4xx_HAL_Driver/Src/stm32l4xx_hal_dac.c ****             ##### Peripheral State and Errors functions #####
1388:Drivers/STM32L4xx_HAL_Driver/Src/stm32l4xx_hal_dac.c ****   ==============================================================================
1389:Drivers/STM32L4xx_HAL_Driver/Src/stm32l4xx_hal_dac.c ****     [..]
1390:Drivers/STM32L4xx_HAL_Driver/Src/stm32l4xx_hal_dac.c ****     This subsection provides functions allowing to
1391:Drivers/STM32L4xx_HAL_Driver/Src/stm32l4xx_hal_dac.c ****       (+) Check the DAC state.
ARM GAS  /tmp/cc4ENhcr.s 			page 41


1392:Drivers/STM32L4xx_HAL_Driver/Src/stm32l4xx_hal_dac.c ****       (+) Check the DAC Errors.
1393:Drivers/STM32L4xx_HAL_Driver/Src/stm32l4xx_hal_dac.c **** 
1394:Drivers/STM32L4xx_HAL_Driver/Src/stm32l4xx_hal_dac.c **** @endverbatim
1395:Drivers/STM32L4xx_HAL_Driver/Src/stm32l4xx_hal_dac.c ****   * @{
1396:Drivers/STM32L4xx_HAL_Driver/Src/stm32l4xx_hal_dac.c ****   */
1397:Drivers/STM32L4xx_HAL_Driver/Src/stm32l4xx_hal_dac.c **** 
1398:Drivers/STM32L4xx_HAL_Driver/Src/stm32l4xx_hal_dac.c **** /**
1399:Drivers/STM32L4xx_HAL_Driver/Src/stm32l4xx_hal_dac.c ****   * @brief  return the DAC handle state
1400:Drivers/STM32L4xx_HAL_Driver/Src/stm32l4xx_hal_dac.c ****   * @param  hdac pointer to a DAC_HandleTypeDef structure that contains
1401:Drivers/STM32L4xx_HAL_Driver/Src/stm32l4xx_hal_dac.c ****   *         the configuration information for the specified DAC.
1402:Drivers/STM32L4xx_HAL_Driver/Src/stm32l4xx_hal_dac.c ****   * @retval HAL state
1403:Drivers/STM32L4xx_HAL_Driver/Src/stm32l4xx_hal_dac.c ****   */
1404:Drivers/STM32L4xx_HAL_Driver/Src/stm32l4xx_hal_dac.c **** HAL_DAC_StateTypeDef HAL_DAC_GetState(DAC_HandleTypeDef *hdac)
1405:Drivers/STM32L4xx_HAL_Driver/Src/stm32l4xx_hal_dac.c **** {
1406:Drivers/STM32L4xx_HAL_Driver/Src/stm32l4xx_hal_dac.c ****   /* Return DAC handle state */
1407:Drivers/STM32L4xx_HAL_Driver/Src/stm32l4xx_hal_dac.c ****   return hdac->State;
1408:Drivers/STM32L4xx_HAL_Driver/Src/stm32l4xx_hal_dac.c **** }
1409:Drivers/STM32L4xx_HAL_Driver/Src/stm32l4xx_hal_dac.c **** 
1410:Drivers/STM32L4xx_HAL_Driver/Src/stm32l4xx_hal_dac.c **** 
1411:Drivers/STM32L4xx_HAL_Driver/Src/stm32l4xx_hal_dac.c **** /**
1412:Drivers/STM32L4xx_HAL_Driver/Src/stm32l4xx_hal_dac.c ****   * @brief  Return the DAC error code
1413:Drivers/STM32L4xx_HAL_Driver/Src/stm32l4xx_hal_dac.c ****   * @param  hdac pointer to a DAC_HandleTypeDef structure that contains
1414:Drivers/STM32L4xx_HAL_Driver/Src/stm32l4xx_hal_dac.c ****   *         the configuration information for the specified DAC.
1415:Drivers/STM32L4xx_HAL_Driver/Src/stm32l4xx_hal_dac.c ****   * @retval DAC Error Code
1416:Drivers/STM32L4xx_HAL_Driver/Src/stm32l4xx_hal_dac.c ****   */
1417:Drivers/STM32L4xx_HAL_Driver/Src/stm32l4xx_hal_dac.c **** uint32_t HAL_DAC_GetError(DAC_HandleTypeDef *hdac)
1418:Drivers/STM32L4xx_HAL_Driver/Src/stm32l4xx_hal_dac.c **** {
1419:Drivers/STM32L4xx_HAL_Driver/Src/stm32l4xx_hal_dac.c ****   return hdac->ErrorCode;
1420:Drivers/STM32L4xx_HAL_Driver/Src/stm32l4xx_hal_dac.c **** }
1421:Drivers/STM32L4xx_HAL_Driver/Src/stm32l4xx_hal_dac.c **** 
1422:Drivers/STM32L4xx_HAL_Driver/Src/stm32l4xx_hal_dac.c **** /**
1423:Drivers/STM32L4xx_HAL_Driver/Src/stm32l4xx_hal_dac.c ****   * @}
1424:Drivers/STM32L4xx_HAL_Driver/Src/stm32l4xx_hal_dac.c ****   */
1425:Drivers/STM32L4xx_HAL_Driver/Src/stm32l4xx_hal_dac.c **** 
1426:Drivers/STM32L4xx_HAL_Driver/Src/stm32l4xx_hal_dac.c **** /**
1427:Drivers/STM32L4xx_HAL_Driver/Src/stm32l4xx_hal_dac.c ****   * @}
1428:Drivers/STM32L4xx_HAL_Driver/Src/stm32l4xx_hal_dac.c ****   */
1429:Drivers/STM32L4xx_HAL_Driver/Src/stm32l4xx_hal_dac.c **** 
1430:Drivers/STM32L4xx_HAL_Driver/Src/stm32l4xx_hal_dac.c **** /** @addtogroup DAC_Exported_Functions
1431:Drivers/STM32L4xx_HAL_Driver/Src/stm32l4xx_hal_dac.c ****   * @{
1432:Drivers/STM32L4xx_HAL_Driver/Src/stm32l4xx_hal_dac.c ****   */
1433:Drivers/STM32L4xx_HAL_Driver/Src/stm32l4xx_hal_dac.c **** 
1434:Drivers/STM32L4xx_HAL_Driver/Src/stm32l4xx_hal_dac.c **** /** @addtogroup DAC_Exported_Functions_Group1
1435:Drivers/STM32L4xx_HAL_Driver/Src/stm32l4xx_hal_dac.c ****   * @{
1436:Drivers/STM32L4xx_HAL_Driver/Src/stm32l4xx_hal_dac.c ****   */
1437:Drivers/STM32L4xx_HAL_Driver/Src/stm32l4xx_hal_dac.c **** #if (USE_HAL_DAC_REGISTER_CALLBACKS == 1)
1438:Drivers/STM32L4xx_HAL_Driver/Src/stm32l4xx_hal_dac.c **** /**
1439:Drivers/STM32L4xx_HAL_Driver/Src/stm32l4xx_hal_dac.c ****   * @brief  Register a User DAC Callback
1440:Drivers/STM32L4xx_HAL_Driver/Src/stm32l4xx_hal_dac.c ****   *         To be used instead of the weak (surcharged) predefined callback
1441:Drivers/STM32L4xx_HAL_Driver/Src/stm32l4xx_hal_dac.c ****   * @param  hdac DAC handle
1442:Drivers/STM32L4xx_HAL_Driver/Src/stm32l4xx_hal_dac.c ****   * @param  CallbackID ID of the callback to be registered
1443:Drivers/STM32L4xx_HAL_Driver/Src/stm32l4xx_hal_dac.c ****   *         This parameter can be one of the following values:
1444:Drivers/STM32L4xx_HAL_Driver/Src/stm32l4xx_hal_dac.c ****   *          @arg @ref HAL_DAC_ERROR_INVALID_CALLBACK   DAC Error Callback ID
1445:Drivers/STM32L4xx_HAL_Driver/Src/stm32l4xx_hal_dac.c ****   *          @arg @ref HAL_DAC_CH1_COMPLETE_CB_ID       DAC CH1 Complete Callback ID
1446:Drivers/STM32L4xx_HAL_Driver/Src/stm32l4xx_hal_dac.c ****   *          @arg @ref HAL_DAC_CH1_HALF_COMPLETE_CB_ID  DAC CH1 Half Complete Callback ID
1447:Drivers/STM32L4xx_HAL_Driver/Src/stm32l4xx_hal_dac.c ****   *          @arg @ref HAL_DAC_CH1_ERROR_ID             DAC CH1 Error Callback ID
1448:Drivers/STM32L4xx_HAL_Driver/Src/stm32l4xx_hal_dac.c ****   *          @arg @ref HAL_DAC_CH1_UNDERRUN_CB_ID       DAC CH1 UnderRun Callback ID
ARM GAS  /tmp/cc4ENhcr.s 			page 42


1449:Drivers/STM32L4xx_HAL_Driver/Src/stm32l4xx_hal_dac.c ****   *          @arg @ref HAL_DAC_CH2_COMPLETE_CB_ID       DAC CH2 Complete Callback ID
1450:Drivers/STM32L4xx_HAL_Driver/Src/stm32l4xx_hal_dac.c ****   *          @arg @ref HAL_DAC_CH2_HALF_COMPLETE_CB_ID  DAC CH2 Half Complete Callback ID
1451:Drivers/STM32L4xx_HAL_Driver/Src/stm32l4xx_hal_dac.c ****   *          @arg @ref HAL_DAC_CH2_ERROR_ID             DAC CH2 Error Callback ID
1452:Drivers/STM32L4xx_HAL_Driver/Src/stm32l4xx_hal_dac.c ****   *          @arg @ref HAL_DAC_CH2_UNDERRUN_CB_ID       DAC CH2 UnderRun Callback ID
1453:Drivers/STM32L4xx_HAL_Driver/Src/stm32l4xx_hal_dac.c ****   *          @arg @ref HAL_DAC_MSPINIT_CB_ID            DAC MSP Init Callback ID
1454:Drivers/STM32L4xx_HAL_Driver/Src/stm32l4xx_hal_dac.c ****   *          @arg @ref HAL_DAC_MSPDEINIT_CB_ID          DAC MSP DeInit Callback ID
1455:Drivers/STM32L4xx_HAL_Driver/Src/stm32l4xx_hal_dac.c ****   *
1456:Drivers/STM32L4xx_HAL_Driver/Src/stm32l4xx_hal_dac.c ****   * @param  pCallback pointer to the Callback function
1457:Drivers/STM32L4xx_HAL_Driver/Src/stm32l4xx_hal_dac.c ****   * @retval status
1458:Drivers/STM32L4xx_HAL_Driver/Src/stm32l4xx_hal_dac.c ****   */
1459:Drivers/STM32L4xx_HAL_Driver/Src/stm32l4xx_hal_dac.c **** HAL_StatusTypeDef HAL_DAC_RegisterCallback(DAC_HandleTypeDef *hdac, HAL_DAC_CallbackIDTypeDef Callb
1460:Drivers/STM32L4xx_HAL_Driver/Src/stm32l4xx_hal_dac.c ****                                            pDAC_CallbackTypeDef pCallback)
1461:Drivers/STM32L4xx_HAL_Driver/Src/stm32l4xx_hal_dac.c **** {
1462:Drivers/STM32L4xx_HAL_Driver/Src/stm32l4xx_hal_dac.c ****   HAL_StatusTypeDef status = HAL_OK;
1463:Drivers/STM32L4xx_HAL_Driver/Src/stm32l4xx_hal_dac.c **** 
1464:Drivers/STM32L4xx_HAL_Driver/Src/stm32l4xx_hal_dac.c ****   if (pCallback == NULL)
1465:Drivers/STM32L4xx_HAL_Driver/Src/stm32l4xx_hal_dac.c ****   {
1466:Drivers/STM32L4xx_HAL_Driver/Src/stm32l4xx_hal_dac.c ****     /* Update the error code */
1467:Drivers/STM32L4xx_HAL_Driver/Src/stm32l4xx_hal_dac.c ****     hdac->ErrorCode |= HAL_DAC_ERROR_INVALID_CALLBACK;
1468:Drivers/STM32L4xx_HAL_Driver/Src/stm32l4xx_hal_dac.c ****     return HAL_ERROR;
1469:Drivers/STM32L4xx_HAL_Driver/Src/stm32l4xx_hal_dac.c ****   }
1470:Drivers/STM32L4xx_HAL_Driver/Src/stm32l4xx_hal_dac.c **** 
1471:Drivers/STM32L4xx_HAL_Driver/Src/stm32l4xx_hal_dac.c ****   /* Process locked */
1472:Drivers/STM32L4xx_HAL_Driver/Src/stm32l4xx_hal_dac.c ****   __HAL_LOCK(hdac);
1473:Drivers/STM32L4xx_HAL_Driver/Src/stm32l4xx_hal_dac.c **** 
1474:Drivers/STM32L4xx_HAL_Driver/Src/stm32l4xx_hal_dac.c ****   if (hdac->State == HAL_DAC_STATE_READY)
1475:Drivers/STM32L4xx_HAL_Driver/Src/stm32l4xx_hal_dac.c ****   {
1476:Drivers/STM32L4xx_HAL_Driver/Src/stm32l4xx_hal_dac.c ****     switch (CallbackID)
1477:Drivers/STM32L4xx_HAL_Driver/Src/stm32l4xx_hal_dac.c ****     {
1478:Drivers/STM32L4xx_HAL_Driver/Src/stm32l4xx_hal_dac.c ****     case HAL_DAC_CH1_COMPLETE_CB_ID :
1479:Drivers/STM32L4xx_HAL_Driver/Src/stm32l4xx_hal_dac.c ****       hdac->ConvCpltCallbackCh1 = pCallback;
1480:Drivers/STM32L4xx_HAL_Driver/Src/stm32l4xx_hal_dac.c ****       break;
1481:Drivers/STM32L4xx_HAL_Driver/Src/stm32l4xx_hal_dac.c ****     case HAL_DAC_CH1_HALF_COMPLETE_CB_ID :
1482:Drivers/STM32L4xx_HAL_Driver/Src/stm32l4xx_hal_dac.c ****       hdac->ConvHalfCpltCallbackCh1 = pCallback;
1483:Drivers/STM32L4xx_HAL_Driver/Src/stm32l4xx_hal_dac.c ****       break;
1484:Drivers/STM32L4xx_HAL_Driver/Src/stm32l4xx_hal_dac.c ****     case HAL_DAC_CH1_ERROR_ID :
1485:Drivers/STM32L4xx_HAL_Driver/Src/stm32l4xx_hal_dac.c ****       hdac->ErrorCallbackCh1 = pCallback;
1486:Drivers/STM32L4xx_HAL_Driver/Src/stm32l4xx_hal_dac.c ****       break;
1487:Drivers/STM32L4xx_HAL_Driver/Src/stm32l4xx_hal_dac.c ****     case HAL_DAC_CH1_UNDERRUN_CB_ID :
1488:Drivers/STM32L4xx_HAL_Driver/Src/stm32l4xx_hal_dac.c ****       hdac->DMAUnderrunCallbackCh1 = pCallback;
1489:Drivers/STM32L4xx_HAL_Driver/Src/stm32l4xx_hal_dac.c ****       break;
1490:Drivers/STM32L4xx_HAL_Driver/Src/stm32l4xx_hal_dac.c ****     case HAL_DAC_CH2_COMPLETE_CB_ID :
1491:Drivers/STM32L4xx_HAL_Driver/Src/stm32l4xx_hal_dac.c ****       hdac->ConvCpltCallbackCh2 = pCallback;
1492:Drivers/STM32L4xx_HAL_Driver/Src/stm32l4xx_hal_dac.c ****       break;
1493:Drivers/STM32L4xx_HAL_Driver/Src/stm32l4xx_hal_dac.c ****     case HAL_DAC_CH2_HALF_COMPLETE_CB_ID :
1494:Drivers/STM32L4xx_HAL_Driver/Src/stm32l4xx_hal_dac.c ****       hdac->ConvHalfCpltCallbackCh2 = pCallback;
1495:Drivers/STM32L4xx_HAL_Driver/Src/stm32l4xx_hal_dac.c ****       break;
1496:Drivers/STM32L4xx_HAL_Driver/Src/stm32l4xx_hal_dac.c ****     case HAL_DAC_CH2_ERROR_ID :
1497:Drivers/STM32L4xx_HAL_Driver/Src/stm32l4xx_hal_dac.c ****       hdac->ErrorCallbackCh2 = pCallback;
1498:Drivers/STM32L4xx_HAL_Driver/Src/stm32l4xx_hal_dac.c ****       break;
1499:Drivers/STM32L4xx_HAL_Driver/Src/stm32l4xx_hal_dac.c ****     case HAL_DAC_CH2_UNDERRUN_CB_ID :
1500:Drivers/STM32L4xx_HAL_Driver/Src/stm32l4xx_hal_dac.c ****       hdac->DMAUnderrunCallbackCh2 = pCallback;
1501:Drivers/STM32L4xx_HAL_Driver/Src/stm32l4xx_hal_dac.c ****       break;
1502:Drivers/STM32L4xx_HAL_Driver/Src/stm32l4xx_hal_dac.c ****     case HAL_DAC_MSPINIT_CB_ID :
1503:Drivers/STM32L4xx_HAL_Driver/Src/stm32l4xx_hal_dac.c ****       hdac->MspInitCallback = pCallback;
1504:Drivers/STM32L4xx_HAL_Driver/Src/stm32l4xx_hal_dac.c ****       break;
1505:Drivers/STM32L4xx_HAL_Driver/Src/stm32l4xx_hal_dac.c ****     case HAL_DAC_MSPDEINIT_CB_ID :
ARM GAS  /tmp/cc4ENhcr.s 			page 43


1506:Drivers/STM32L4xx_HAL_Driver/Src/stm32l4xx_hal_dac.c ****       hdac->MspDeInitCallback = pCallback;
1507:Drivers/STM32L4xx_HAL_Driver/Src/stm32l4xx_hal_dac.c ****       break;
1508:Drivers/STM32L4xx_HAL_Driver/Src/stm32l4xx_hal_dac.c ****     default :
1509:Drivers/STM32L4xx_HAL_Driver/Src/stm32l4xx_hal_dac.c ****       /* Update the error code */
1510:Drivers/STM32L4xx_HAL_Driver/Src/stm32l4xx_hal_dac.c ****       hdac->ErrorCode |= HAL_DAC_ERROR_INVALID_CALLBACK;
1511:Drivers/STM32L4xx_HAL_Driver/Src/stm32l4xx_hal_dac.c ****       /* update return status */
1512:Drivers/STM32L4xx_HAL_Driver/Src/stm32l4xx_hal_dac.c ****       status =  HAL_ERROR;
1513:Drivers/STM32L4xx_HAL_Driver/Src/stm32l4xx_hal_dac.c ****       break;
1514:Drivers/STM32L4xx_HAL_Driver/Src/stm32l4xx_hal_dac.c ****     }
1515:Drivers/STM32L4xx_HAL_Driver/Src/stm32l4xx_hal_dac.c ****   }
1516:Drivers/STM32L4xx_HAL_Driver/Src/stm32l4xx_hal_dac.c ****   else if (hdac->State == HAL_DAC_STATE_RESET)
1517:Drivers/STM32L4xx_HAL_Driver/Src/stm32l4xx_hal_dac.c ****   {
1518:Drivers/STM32L4xx_HAL_Driver/Src/stm32l4xx_hal_dac.c ****     switch (CallbackID)
1519:Drivers/STM32L4xx_HAL_Driver/Src/stm32l4xx_hal_dac.c ****     {
1520:Drivers/STM32L4xx_HAL_Driver/Src/stm32l4xx_hal_dac.c ****     case HAL_DAC_MSPINIT_CB_ID :
1521:Drivers/STM32L4xx_HAL_Driver/Src/stm32l4xx_hal_dac.c ****       hdac->MspInitCallback = pCallback;
1522:Drivers/STM32L4xx_HAL_Driver/Src/stm32l4xx_hal_dac.c ****       break;
1523:Drivers/STM32L4xx_HAL_Driver/Src/stm32l4xx_hal_dac.c ****     case HAL_DAC_MSPDEINIT_CB_ID :
1524:Drivers/STM32L4xx_HAL_Driver/Src/stm32l4xx_hal_dac.c ****       hdac->MspDeInitCallback = pCallback;
1525:Drivers/STM32L4xx_HAL_Driver/Src/stm32l4xx_hal_dac.c ****       break;
1526:Drivers/STM32L4xx_HAL_Driver/Src/stm32l4xx_hal_dac.c ****     default :
1527:Drivers/STM32L4xx_HAL_Driver/Src/stm32l4xx_hal_dac.c ****       /* Update the error code */
1528:Drivers/STM32L4xx_HAL_Driver/Src/stm32l4xx_hal_dac.c ****       hdac->ErrorCode |= HAL_DAC_ERROR_INVALID_CALLBACK;
1529:Drivers/STM32L4xx_HAL_Driver/Src/stm32l4xx_hal_dac.c ****       /* update return status */
1530:Drivers/STM32L4xx_HAL_Driver/Src/stm32l4xx_hal_dac.c ****       status =  HAL_ERROR;
1531:Drivers/STM32L4xx_HAL_Driver/Src/stm32l4xx_hal_dac.c ****       break;
1532:Drivers/STM32L4xx_HAL_Driver/Src/stm32l4xx_hal_dac.c ****     }
1533:Drivers/STM32L4xx_HAL_Driver/Src/stm32l4xx_hal_dac.c ****   }
1534:Drivers/STM32L4xx_HAL_Driver/Src/stm32l4xx_hal_dac.c ****   else
1535:Drivers/STM32L4xx_HAL_Driver/Src/stm32l4xx_hal_dac.c ****   {
1536:Drivers/STM32L4xx_HAL_Driver/Src/stm32l4xx_hal_dac.c ****     /* Update the error code */
1537:Drivers/STM32L4xx_HAL_Driver/Src/stm32l4xx_hal_dac.c ****     hdac->ErrorCode |= HAL_DAC_ERROR_INVALID_CALLBACK;
1538:Drivers/STM32L4xx_HAL_Driver/Src/stm32l4xx_hal_dac.c ****     /* update return status */
1539:Drivers/STM32L4xx_HAL_Driver/Src/stm32l4xx_hal_dac.c ****     status =  HAL_ERROR;
1540:Drivers/STM32L4xx_HAL_Driver/Src/stm32l4xx_hal_dac.c ****   }
1541:Drivers/STM32L4xx_HAL_Driver/Src/stm32l4xx_hal_dac.c **** 
1542:Drivers/STM32L4xx_HAL_Driver/Src/stm32l4xx_hal_dac.c ****   /* Release Lock */
1543:Drivers/STM32L4xx_HAL_Driver/Src/stm32l4xx_hal_dac.c ****   __HAL_UNLOCK(hdac);
1544:Drivers/STM32L4xx_HAL_Driver/Src/stm32l4xx_hal_dac.c ****   return status;
1545:Drivers/STM32L4xx_HAL_Driver/Src/stm32l4xx_hal_dac.c **** }
1546:Drivers/STM32L4xx_HAL_Driver/Src/stm32l4xx_hal_dac.c **** 
1547:Drivers/STM32L4xx_HAL_Driver/Src/stm32l4xx_hal_dac.c **** /**
1548:Drivers/STM32L4xx_HAL_Driver/Src/stm32l4xx_hal_dac.c ****   * @brief  Unregister a User DAC Callback
1549:Drivers/STM32L4xx_HAL_Driver/Src/stm32l4xx_hal_dac.c ****   *         DAC Callback is redirected to the weak (surcharged) predefined callback
1550:Drivers/STM32L4xx_HAL_Driver/Src/stm32l4xx_hal_dac.c ****   * @param  hdac DAC handle
1551:Drivers/STM32L4xx_HAL_Driver/Src/stm32l4xx_hal_dac.c ****   * @param  CallbackID ID of the callback to be unregistered
1552:Drivers/STM32L4xx_HAL_Driver/Src/stm32l4xx_hal_dac.c ****   *         This parameter can be one of the following values:
1553:Drivers/STM32L4xx_HAL_Driver/Src/stm32l4xx_hal_dac.c ****   *          @arg @ref HAL_DAC_CH1_COMPLETE_CB_ID          DAC CH1 transfer Complete Callback ID
1554:Drivers/STM32L4xx_HAL_Driver/Src/stm32l4xx_hal_dac.c ****   *          @arg @ref HAL_DAC_CH1_HALF_COMPLETE_CB_ID     DAC CH1 Half Complete Callback ID
1555:Drivers/STM32L4xx_HAL_Driver/Src/stm32l4xx_hal_dac.c ****   *          @arg @ref HAL_DAC_CH1_ERROR_ID                DAC CH1 Error Callback ID
1556:Drivers/STM32L4xx_HAL_Driver/Src/stm32l4xx_hal_dac.c ****   *          @arg @ref HAL_DAC_CH1_UNDERRUN_CB_ID          DAC CH1 UnderRun Callback ID
1557:Drivers/STM32L4xx_HAL_Driver/Src/stm32l4xx_hal_dac.c ****   *          @arg @ref HAL_DAC_CH2_COMPLETE_CB_ID          DAC CH2 Complete Callback ID
1558:Drivers/STM32L4xx_HAL_Driver/Src/stm32l4xx_hal_dac.c ****   *          @arg @ref HAL_DAC_CH2_HALF_COMPLETE_CB_ID     DAC CH2 Half Complete Callback ID
1559:Drivers/STM32L4xx_HAL_Driver/Src/stm32l4xx_hal_dac.c ****   *          @arg @ref HAL_DAC_CH2_ERROR_ID                DAC CH2 Error Callback ID
1560:Drivers/STM32L4xx_HAL_Driver/Src/stm32l4xx_hal_dac.c ****   *          @arg @ref HAL_DAC_CH2_UNDERRUN_CB_ID          DAC CH2 UnderRun Callback ID
1561:Drivers/STM32L4xx_HAL_Driver/Src/stm32l4xx_hal_dac.c ****   *          @arg @ref HAL_DAC_MSPINIT_CB_ID               DAC MSP Init Callback ID
1562:Drivers/STM32L4xx_HAL_Driver/Src/stm32l4xx_hal_dac.c ****   *          @arg @ref HAL_DAC_MSPDEINIT_CB_ID             DAC MSP DeInit Callback ID
ARM GAS  /tmp/cc4ENhcr.s 			page 44


1563:Drivers/STM32L4xx_HAL_Driver/Src/stm32l4xx_hal_dac.c ****   *          @arg @ref HAL_DAC_ALL_CB_ID                   DAC All callbacks
1564:Drivers/STM32L4xx_HAL_Driver/Src/stm32l4xx_hal_dac.c ****   * @retval status
1565:Drivers/STM32L4xx_HAL_Driver/Src/stm32l4xx_hal_dac.c ****   */
1566:Drivers/STM32L4xx_HAL_Driver/Src/stm32l4xx_hal_dac.c **** HAL_StatusTypeDef HAL_DAC_UnRegisterCallback(DAC_HandleTypeDef *hdac, HAL_DAC_CallbackIDTypeDef Cal
1567:Drivers/STM32L4xx_HAL_Driver/Src/stm32l4xx_hal_dac.c **** {
1568:Drivers/STM32L4xx_HAL_Driver/Src/stm32l4xx_hal_dac.c ****   HAL_StatusTypeDef status = HAL_OK;
1569:Drivers/STM32L4xx_HAL_Driver/Src/stm32l4xx_hal_dac.c **** 
1570:Drivers/STM32L4xx_HAL_Driver/Src/stm32l4xx_hal_dac.c ****   /* Process locked */
1571:Drivers/STM32L4xx_HAL_Driver/Src/stm32l4xx_hal_dac.c ****   __HAL_LOCK(hdac);
1572:Drivers/STM32L4xx_HAL_Driver/Src/stm32l4xx_hal_dac.c **** 
1573:Drivers/STM32L4xx_HAL_Driver/Src/stm32l4xx_hal_dac.c ****   if (hdac->State == HAL_DAC_STATE_READY)
1574:Drivers/STM32L4xx_HAL_Driver/Src/stm32l4xx_hal_dac.c ****   {
1575:Drivers/STM32L4xx_HAL_Driver/Src/stm32l4xx_hal_dac.c ****     switch (CallbackID)
1576:Drivers/STM32L4xx_HAL_Driver/Src/stm32l4xx_hal_dac.c ****     {
1577:Drivers/STM32L4xx_HAL_Driver/Src/stm32l4xx_hal_dac.c ****     case HAL_DAC_CH1_COMPLETE_CB_ID :
1578:Drivers/STM32L4xx_HAL_Driver/Src/stm32l4xx_hal_dac.c ****       hdac->ConvCpltCallbackCh1 = HAL_DAC_ConvCpltCallbackCh1;
1579:Drivers/STM32L4xx_HAL_Driver/Src/stm32l4xx_hal_dac.c ****       break;
1580:Drivers/STM32L4xx_HAL_Driver/Src/stm32l4xx_hal_dac.c ****     case HAL_DAC_CH1_HALF_COMPLETE_CB_ID :
1581:Drivers/STM32L4xx_HAL_Driver/Src/stm32l4xx_hal_dac.c ****       hdac->ConvHalfCpltCallbackCh1 = HAL_DAC_ConvHalfCpltCallbackCh1;
1582:Drivers/STM32L4xx_HAL_Driver/Src/stm32l4xx_hal_dac.c ****       break;
1583:Drivers/STM32L4xx_HAL_Driver/Src/stm32l4xx_hal_dac.c ****     case HAL_DAC_CH1_ERROR_ID :
1584:Drivers/STM32L4xx_HAL_Driver/Src/stm32l4xx_hal_dac.c ****       hdac->ErrorCallbackCh1 = HAL_DAC_ErrorCallbackCh1;
1585:Drivers/STM32L4xx_HAL_Driver/Src/stm32l4xx_hal_dac.c ****       break;
1586:Drivers/STM32L4xx_HAL_Driver/Src/stm32l4xx_hal_dac.c ****     case HAL_DAC_CH1_UNDERRUN_CB_ID :
1587:Drivers/STM32L4xx_HAL_Driver/Src/stm32l4xx_hal_dac.c ****       hdac->DMAUnderrunCallbackCh1 = HAL_DAC_DMAUnderrunCallbackCh1;
1588:Drivers/STM32L4xx_HAL_Driver/Src/stm32l4xx_hal_dac.c ****       break;
1589:Drivers/STM32L4xx_HAL_Driver/Src/stm32l4xx_hal_dac.c **** #if defined (STM32L431xx) || defined (STM32L432xx) || defined (STM32L433xx) || defined (STM32L442xx
1590:Drivers/STM32L4xx_HAL_Driver/Src/stm32l4xx_hal_dac.c ****     defined (STM32L471xx) || defined (STM32L475xx) || defined (STM32L476xx) || defined (STM32L485xx
1591:Drivers/STM32L4xx_HAL_Driver/Src/stm32l4xx_hal_dac.c ****     defined (STM32L4P5xx) || defined (STM32L4Q5xx) || \
1592:Drivers/STM32L4xx_HAL_Driver/Src/stm32l4xx_hal_dac.c ****     defined (STM32L4R5xx) || defined (STM32L4R7xx) || defined (STM32L4R9xx) || defined (STM32L4S5xx
1593:Drivers/STM32L4xx_HAL_Driver/Src/stm32l4xx_hal_dac.c ****     case HAL_DAC_CH2_COMPLETE_CB_ID :
1594:Drivers/STM32L4xx_HAL_Driver/Src/stm32l4xx_hal_dac.c ****       hdac->ConvCpltCallbackCh2 = HAL_DACEx_ConvCpltCallbackCh2;
1595:Drivers/STM32L4xx_HAL_Driver/Src/stm32l4xx_hal_dac.c ****       break;
1596:Drivers/STM32L4xx_HAL_Driver/Src/stm32l4xx_hal_dac.c ****     case HAL_DAC_CH2_HALF_COMPLETE_CB_ID :
1597:Drivers/STM32L4xx_HAL_Driver/Src/stm32l4xx_hal_dac.c ****       hdac->ConvHalfCpltCallbackCh2 = HAL_DACEx_ConvHalfCpltCallbackCh2;
1598:Drivers/STM32L4xx_HAL_Driver/Src/stm32l4xx_hal_dac.c ****       break;
1599:Drivers/STM32L4xx_HAL_Driver/Src/stm32l4xx_hal_dac.c ****     case HAL_DAC_CH2_ERROR_ID :
1600:Drivers/STM32L4xx_HAL_Driver/Src/stm32l4xx_hal_dac.c ****       hdac->ErrorCallbackCh2 = HAL_DACEx_ErrorCallbackCh2;
1601:Drivers/STM32L4xx_HAL_Driver/Src/stm32l4xx_hal_dac.c ****       break;
1602:Drivers/STM32L4xx_HAL_Driver/Src/stm32l4xx_hal_dac.c ****     case HAL_DAC_CH2_UNDERRUN_CB_ID :
1603:Drivers/STM32L4xx_HAL_Driver/Src/stm32l4xx_hal_dac.c ****       hdac->DMAUnderrunCallbackCh2 = HAL_DACEx_DMAUnderrunCallbackCh2;
1604:Drivers/STM32L4xx_HAL_Driver/Src/stm32l4xx_hal_dac.c ****       break;
1605:Drivers/STM32L4xx_HAL_Driver/Src/stm32l4xx_hal_dac.c **** #endif  /* STM32L431xx STM32L432xx STM32L433xx STM32L442xx STM32L443xx                         */
1606:Drivers/STM32L4xx_HAL_Driver/Src/stm32l4xx_hal_dac.c ****         /* STM32L471xx STM32L475xx STM32L476xx STM32L485xx STM32L486xx STM32L496xx STM32L4A6xx */
1607:Drivers/STM32L4xx_HAL_Driver/Src/stm32l4xx_hal_dac.c ****         /* STM32L4P5xx STM32L4Q5xx                                                             */
1608:Drivers/STM32L4xx_HAL_Driver/Src/stm32l4xx_hal_dac.c ****         /* STM32L4R5xx STM32L4R7xx STM32L4R9xx STM32L4S5xx STM32L4S7xx STM32L4S9xx             */
1609:Drivers/STM32L4xx_HAL_Driver/Src/stm32l4xx_hal_dac.c ****     case HAL_DAC_MSPINIT_CB_ID :
1610:Drivers/STM32L4xx_HAL_Driver/Src/stm32l4xx_hal_dac.c ****       hdac->MspInitCallback = HAL_DAC_MspInit;
1611:Drivers/STM32L4xx_HAL_Driver/Src/stm32l4xx_hal_dac.c ****       break;
1612:Drivers/STM32L4xx_HAL_Driver/Src/stm32l4xx_hal_dac.c ****     case HAL_DAC_MSPDEINIT_CB_ID :
1613:Drivers/STM32L4xx_HAL_Driver/Src/stm32l4xx_hal_dac.c ****       hdac->MspDeInitCallback = HAL_DAC_MspDeInit;
1614:Drivers/STM32L4xx_HAL_Driver/Src/stm32l4xx_hal_dac.c ****       break;
1615:Drivers/STM32L4xx_HAL_Driver/Src/stm32l4xx_hal_dac.c ****     case HAL_DAC_ALL_CB_ID :
1616:Drivers/STM32L4xx_HAL_Driver/Src/stm32l4xx_hal_dac.c ****       hdac->ConvCpltCallbackCh1 = HAL_DAC_ConvCpltCallbackCh1;
1617:Drivers/STM32L4xx_HAL_Driver/Src/stm32l4xx_hal_dac.c ****       hdac->ConvHalfCpltCallbackCh1 = HAL_DAC_ConvHalfCpltCallbackCh1;
1618:Drivers/STM32L4xx_HAL_Driver/Src/stm32l4xx_hal_dac.c ****       hdac->ErrorCallbackCh1 = HAL_DAC_ErrorCallbackCh1;
1619:Drivers/STM32L4xx_HAL_Driver/Src/stm32l4xx_hal_dac.c ****       hdac->DMAUnderrunCallbackCh1 = HAL_DAC_DMAUnderrunCallbackCh1;
ARM GAS  /tmp/cc4ENhcr.s 			page 45


1620:Drivers/STM32L4xx_HAL_Driver/Src/stm32l4xx_hal_dac.c **** #if defined (STM32L431xx) || defined (STM32L432xx) || defined (STM32L433xx) || defined (STM32L442xx
1621:Drivers/STM32L4xx_HAL_Driver/Src/stm32l4xx_hal_dac.c ****     defined (STM32L471xx) || defined (STM32L475xx) || defined (STM32L476xx) || defined (STM32L485xx
1622:Drivers/STM32L4xx_HAL_Driver/Src/stm32l4xx_hal_dac.c ****     defined (STM32L4P5xx) || defined (STM32L4Q5xx) || \
1623:Drivers/STM32L4xx_HAL_Driver/Src/stm32l4xx_hal_dac.c ****     defined (STM32L4R5xx) || defined (STM32L4R7xx) || defined (STM32L4R9xx) || defined (STM32L4S5xx
1624:Drivers/STM32L4xx_HAL_Driver/Src/stm32l4xx_hal_dac.c ****       hdac->ConvCpltCallbackCh2 = HAL_DACEx_ConvCpltCallbackCh2;
1625:Drivers/STM32L4xx_HAL_Driver/Src/stm32l4xx_hal_dac.c ****       hdac->ConvHalfCpltCallbackCh2 = HAL_DACEx_ConvHalfCpltCallbackCh2;
1626:Drivers/STM32L4xx_HAL_Driver/Src/stm32l4xx_hal_dac.c ****       hdac->ErrorCallbackCh2 = HAL_DACEx_ErrorCallbackCh2;
1627:Drivers/STM32L4xx_HAL_Driver/Src/stm32l4xx_hal_dac.c ****       hdac->DMAUnderrunCallbackCh2 = HAL_DACEx_DMAUnderrunCallbackCh2;
1628:Drivers/STM32L4xx_HAL_Driver/Src/stm32l4xx_hal_dac.c **** #endif  /* STM32L431xx STM32L432xx STM32L433xx STM32L442xx STM32L443xx                         */
1629:Drivers/STM32L4xx_HAL_Driver/Src/stm32l4xx_hal_dac.c ****         /* STM32L471xx STM32L475xx STM32L476xx STM32L485xx STM32L486xx STM32L496xx STM32L4A6xx */
1630:Drivers/STM32L4xx_HAL_Driver/Src/stm32l4xx_hal_dac.c ****         /* STM32L4P5xx STM32L4Q5xx                                                             */
1631:Drivers/STM32L4xx_HAL_Driver/Src/stm32l4xx_hal_dac.c ****         /* STM32L4R5xx STM32L4R7xx STM32L4R9xx STM32L4S5xx STM32L4S7xx STM32L4S9xx             */
1632:Drivers/STM32L4xx_HAL_Driver/Src/stm32l4xx_hal_dac.c ****       hdac->MspInitCallback = HAL_DAC_MspInit;
1633:Drivers/STM32L4xx_HAL_Driver/Src/stm32l4xx_hal_dac.c ****       hdac->MspDeInitCallback = HAL_DAC_MspDeInit;
1634:Drivers/STM32L4xx_HAL_Driver/Src/stm32l4xx_hal_dac.c ****       break;
1635:Drivers/STM32L4xx_HAL_Driver/Src/stm32l4xx_hal_dac.c ****     default :
1636:Drivers/STM32L4xx_HAL_Driver/Src/stm32l4xx_hal_dac.c ****       /* Update the error code */
1637:Drivers/STM32L4xx_HAL_Driver/Src/stm32l4xx_hal_dac.c ****       hdac->ErrorCode |= HAL_DAC_ERROR_INVALID_CALLBACK;
1638:Drivers/STM32L4xx_HAL_Driver/Src/stm32l4xx_hal_dac.c ****       /* update return status */
1639:Drivers/STM32L4xx_HAL_Driver/Src/stm32l4xx_hal_dac.c ****       status =  HAL_ERROR;
1640:Drivers/STM32L4xx_HAL_Driver/Src/stm32l4xx_hal_dac.c ****       break;
1641:Drivers/STM32L4xx_HAL_Driver/Src/stm32l4xx_hal_dac.c ****     }
1642:Drivers/STM32L4xx_HAL_Driver/Src/stm32l4xx_hal_dac.c ****   }
1643:Drivers/STM32L4xx_HAL_Driver/Src/stm32l4xx_hal_dac.c ****   else if (hdac->State == HAL_DAC_STATE_RESET)
1644:Drivers/STM32L4xx_HAL_Driver/Src/stm32l4xx_hal_dac.c ****   {
1645:Drivers/STM32L4xx_HAL_Driver/Src/stm32l4xx_hal_dac.c ****     switch (CallbackID)
1646:Drivers/STM32L4xx_HAL_Driver/Src/stm32l4xx_hal_dac.c ****     {
1647:Drivers/STM32L4xx_HAL_Driver/Src/stm32l4xx_hal_dac.c ****     case HAL_DAC_MSPINIT_CB_ID :
1648:Drivers/STM32L4xx_HAL_Driver/Src/stm32l4xx_hal_dac.c ****       hdac->MspInitCallback = HAL_DAC_MspInit;
1649:Drivers/STM32L4xx_HAL_Driver/Src/stm32l4xx_hal_dac.c ****       break;
1650:Drivers/STM32L4xx_HAL_Driver/Src/stm32l4xx_hal_dac.c ****     case HAL_DAC_MSPDEINIT_CB_ID :
1651:Drivers/STM32L4xx_HAL_Driver/Src/stm32l4xx_hal_dac.c ****       hdac->MspDeInitCallback = HAL_DAC_MspDeInit;
1652:Drivers/STM32L4xx_HAL_Driver/Src/stm32l4xx_hal_dac.c ****       break;
1653:Drivers/STM32L4xx_HAL_Driver/Src/stm32l4xx_hal_dac.c ****     default :
1654:Drivers/STM32L4xx_HAL_Driver/Src/stm32l4xx_hal_dac.c ****       /* Update the error code */
1655:Drivers/STM32L4xx_HAL_Driver/Src/stm32l4xx_hal_dac.c ****       hdac->ErrorCode |= HAL_DAC_ERROR_INVALID_CALLBACK;
1656:Drivers/STM32L4xx_HAL_Driver/Src/stm32l4xx_hal_dac.c ****       /* update return status */
1657:Drivers/STM32L4xx_HAL_Driver/Src/stm32l4xx_hal_dac.c ****       status =  HAL_ERROR;
1658:Drivers/STM32L4xx_HAL_Driver/Src/stm32l4xx_hal_dac.c ****       break;
1659:Drivers/STM32L4xx_HAL_Driver/Src/stm32l4xx_hal_dac.c ****     }
1660:Drivers/STM32L4xx_HAL_Driver/Src/stm32l4xx_hal_dac.c ****   }
1661:Drivers/STM32L4xx_HAL_Driver/Src/stm32l4xx_hal_dac.c ****   else
1662:Drivers/STM32L4xx_HAL_Driver/Src/stm32l4xx_hal_dac.c ****   {
1663:Drivers/STM32L4xx_HAL_Driver/Src/stm32l4xx_hal_dac.c ****     /* Update the error code */
1664:Drivers/STM32L4xx_HAL_Driver/Src/stm32l4xx_hal_dac.c ****     hdac->ErrorCode |= HAL_DAC_ERROR_INVALID_CALLBACK;
1665:Drivers/STM32L4xx_HAL_Driver/Src/stm32l4xx_hal_dac.c ****     /* update return status */
1666:Drivers/STM32L4xx_HAL_Driver/Src/stm32l4xx_hal_dac.c ****     status =  HAL_ERROR;
1667:Drivers/STM32L4xx_HAL_Driver/Src/stm32l4xx_hal_dac.c ****   }
1668:Drivers/STM32L4xx_HAL_Driver/Src/stm32l4xx_hal_dac.c **** 
1669:Drivers/STM32L4xx_HAL_Driver/Src/stm32l4xx_hal_dac.c ****   /* Release Lock */
1670:Drivers/STM32L4xx_HAL_Driver/Src/stm32l4xx_hal_dac.c ****   __HAL_UNLOCK(hdac);
1671:Drivers/STM32L4xx_HAL_Driver/Src/stm32l4xx_hal_dac.c ****   return status;
1672:Drivers/STM32L4xx_HAL_Driver/Src/stm32l4xx_hal_dac.c **** }
1673:Drivers/STM32L4xx_HAL_Driver/Src/stm32l4xx_hal_dac.c **** #endif /* USE_HAL_DAC_REGISTER_CALLBACKS */
1674:Drivers/STM32L4xx_HAL_Driver/Src/stm32l4xx_hal_dac.c **** 
1675:Drivers/STM32L4xx_HAL_Driver/Src/stm32l4xx_hal_dac.c **** /**
1676:Drivers/STM32L4xx_HAL_Driver/Src/stm32l4xx_hal_dac.c ****   * @}
ARM GAS  /tmp/cc4ENhcr.s 			page 46


1677:Drivers/STM32L4xx_HAL_Driver/Src/stm32l4xx_hal_dac.c ****   */
1678:Drivers/STM32L4xx_HAL_Driver/Src/stm32l4xx_hal_dac.c **** 
1679:Drivers/STM32L4xx_HAL_Driver/Src/stm32l4xx_hal_dac.c **** /**
1680:Drivers/STM32L4xx_HAL_Driver/Src/stm32l4xx_hal_dac.c ****   * @}
1681:Drivers/STM32L4xx_HAL_Driver/Src/stm32l4xx_hal_dac.c ****   */
1682:Drivers/STM32L4xx_HAL_Driver/Src/stm32l4xx_hal_dac.c **** 
1683:Drivers/STM32L4xx_HAL_Driver/Src/stm32l4xx_hal_dac.c **** /** @addtogroup DAC_Private_Functions
1684:Drivers/STM32L4xx_HAL_Driver/Src/stm32l4xx_hal_dac.c ****   * @{
1685:Drivers/STM32L4xx_HAL_Driver/Src/stm32l4xx_hal_dac.c ****   */
1686:Drivers/STM32L4xx_HAL_Driver/Src/stm32l4xx_hal_dac.c **** 
1687:Drivers/STM32L4xx_HAL_Driver/Src/stm32l4xx_hal_dac.c **** /**
1688:Drivers/STM32L4xx_HAL_Driver/Src/stm32l4xx_hal_dac.c ****   * @brief  DMA conversion complete callback.
1689:Drivers/STM32L4xx_HAL_Driver/Src/stm32l4xx_hal_dac.c ****   * @param  hdma pointer to a DMA_HandleTypeDef structure that contains
1690:Drivers/STM32L4xx_HAL_Driver/Src/stm32l4xx_hal_dac.c ****   *                the configuration information for the specified DMA module.
1691:Drivers/STM32L4xx_HAL_Driver/Src/stm32l4xx_hal_dac.c ****   * @retval None
1692:Drivers/STM32L4xx_HAL_Driver/Src/stm32l4xx_hal_dac.c ****   */
1693:Drivers/STM32L4xx_HAL_Driver/Src/stm32l4xx_hal_dac.c **** void DAC_DMAConvCpltCh1(DMA_HandleTypeDef *hdma)
1694:Drivers/STM32L4xx_HAL_Driver/Src/stm32l4xx_hal_dac.c **** {
 812              		.loc 1 1694 1 is_stmt 1 view -0
 813              		.cfi_startproc
 814              		@ args = 0, pretend = 0, frame = 0
 815              		@ frame_needed = 0, uses_anonymous_args = 0
 816              		.loc 1 1694 1 is_stmt 0 view .LVU222
 817 0000 10B5     		push	{r4, lr}
 818              	.LCFI17:
 819              		.cfi_def_cfa_offset 8
 820              		.cfi_offset 4, -8
 821              		.cfi_offset 14, -4
1695:Drivers/STM32L4xx_HAL_Driver/Src/stm32l4xx_hal_dac.c ****   DAC_HandleTypeDef *hdac = (DAC_HandleTypeDef *)((DMA_HandleTypeDef *)hdma)->Parent;
 822              		.loc 1 1695 3 is_stmt 1 view .LVU223
 823              		.loc 1 1695 22 is_stmt 0 view .LVU224
 824 0002 846A     		ldr	r4, [r0, #40]
 825              	.LVL55:
1696:Drivers/STM32L4xx_HAL_Driver/Src/stm32l4xx_hal_dac.c **** 
1697:Drivers/STM32L4xx_HAL_Driver/Src/stm32l4xx_hal_dac.c **** #if (USE_HAL_DAC_REGISTER_CALLBACKS == 1)
1698:Drivers/STM32L4xx_HAL_Driver/Src/stm32l4xx_hal_dac.c ****   hdac->ConvCpltCallbackCh1(hdac);
1699:Drivers/STM32L4xx_HAL_Driver/Src/stm32l4xx_hal_dac.c **** #else
1700:Drivers/STM32L4xx_HAL_Driver/Src/stm32l4xx_hal_dac.c ****   HAL_DAC_ConvCpltCallbackCh1(hdac);
 826              		.loc 1 1700 3 is_stmt 1 view .LVU225
 827 0004 2046     		mov	r0, r4
 828              	.LVL56:
 829              		.loc 1 1700 3 is_stmt 0 view .LVU226
 830 0006 FFF7FEFF 		bl	HAL_DAC_ConvCpltCallbackCh1
 831              	.LVL57:
1701:Drivers/STM32L4xx_HAL_Driver/Src/stm32l4xx_hal_dac.c **** #endif /* USE_HAL_DAC_REGISTER_CALLBACKS */
1702:Drivers/STM32L4xx_HAL_Driver/Src/stm32l4xx_hal_dac.c **** 
1703:Drivers/STM32L4xx_HAL_Driver/Src/stm32l4xx_hal_dac.c ****   hdac->State = HAL_DAC_STATE_READY;
 832              		.loc 1 1703 3 is_stmt 1 view .LVU227
 833              		.loc 1 1703 15 is_stmt 0 view .LVU228
 834 000a 0123     		movs	r3, #1
 835 000c 2371     		strb	r3, [r4, #4]
1704:Drivers/STM32L4xx_HAL_Driver/Src/stm32l4xx_hal_dac.c **** }
 836              		.loc 1 1704 1 view .LVU229
 837 000e 10BD     		pop	{r4, pc}
 838              		.loc 1 1704 1 view .LVU230
 839              		.cfi_endproc
 840              	.LFE150:
ARM GAS  /tmp/cc4ENhcr.s 			page 47


 842              		.section	.text.HAL_DAC_ConvHalfCpltCallbackCh1,"ax",%progbits
 843              		.align	1
 844              		.weak	HAL_DAC_ConvHalfCpltCallbackCh1
 845              		.syntax unified
 846              		.thumb
 847              		.thumb_func
 848              		.fpu fpv4-sp-d16
 850              	HAL_DAC_ConvHalfCpltCallbackCh1:
 851              	.LVL58:
 852              	.LFB143:
1084:Drivers/STM32L4xx_HAL_Driver/Src/stm32l4xx_hal_dac.c ****   /* Prevent unused argument(s) compilation warning */
 853              		.loc 1 1084 1 is_stmt 1 view -0
 854              		.cfi_startproc
 855              		@ args = 0, pretend = 0, frame = 0
 856              		@ frame_needed = 0, uses_anonymous_args = 0
 857              		@ link register save eliminated.
1086:Drivers/STM32L4xx_HAL_Driver/Src/stm32l4xx_hal_dac.c **** 
 858              		.loc 1 1086 3 view .LVU232
1091:Drivers/STM32L4xx_HAL_Driver/Src/stm32l4xx_hal_dac.c **** 
 859              		.loc 1 1091 1 is_stmt 0 view .LVU233
 860 0000 7047     		bx	lr
 861              		.cfi_endproc
 862              	.LFE143:
 864              		.section	.text.DAC_DMAHalfConvCpltCh1,"ax",%progbits
 865              		.align	1
 866              		.global	DAC_DMAHalfConvCpltCh1
 867              		.syntax unified
 868              		.thumb
 869              		.thumb_func
 870              		.fpu fpv4-sp-d16
 872              	DAC_DMAHalfConvCpltCh1:
 873              	.LVL59:
 874              	.LFB151:
1705:Drivers/STM32L4xx_HAL_Driver/Src/stm32l4xx_hal_dac.c **** 
1706:Drivers/STM32L4xx_HAL_Driver/Src/stm32l4xx_hal_dac.c **** /**
1707:Drivers/STM32L4xx_HAL_Driver/Src/stm32l4xx_hal_dac.c ****   * @brief  DMA half transfer complete callback.
1708:Drivers/STM32L4xx_HAL_Driver/Src/stm32l4xx_hal_dac.c ****   * @param  hdma pointer to a DMA_HandleTypeDef structure that contains
1709:Drivers/STM32L4xx_HAL_Driver/Src/stm32l4xx_hal_dac.c ****   *                the configuration information for the specified DMA module.
1710:Drivers/STM32L4xx_HAL_Driver/Src/stm32l4xx_hal_dac.c ****   * @retval None
1711:Drivers/STM32L4xx_HAL_Driver/Src/stm32l4xx_hal_dac.c ****   */
1712:Drivers/STM32L4xx_HAL_Driver/Src/stm32l4xx_hal_dac.c **** void DAC_DMAHalfConvCpltCh1(DMA_HandleTypeDef *hdma)
1713:Drivers/STM32L4xx_HAL_Driver/Src/stm32l4xx_hal_dac.c **** {
 875              		.loc 1 1713 1 is_stmt 1 view -0
 876              		.cfi_startproc
 877              		@ args = 0, pretend = 0, frame = 0
 878              		@ frame_needed = 0, uses_anonymous_args = 0
 879              		.loc 1 1713 1 is_stmt 0 view .LVU235
 880 0000 08B5     		push	{r3, lr}
 881              	.LCFI18:
 882              		.cfi_def_cfa_offset 8
 883              		.cfi_offset 3, -8
 884              		.cfi_offset 14, -4
1714:Drivers/STM32L4xx_HAL_Driver/Src/stm32l4xx_hal_dac.c ****   DAC_HandleTypeDef *hdac = (DAC_HandleTypeDef *)((DMA_HandleTypeDef *)hdma)->Parent;
 885              		.loc 1 1714 3 is_stmt 1 view .LVU236
 886              	.LVL60:
1715:Drivers/STM32L4xx_HAL_Driver/Src/stm32l4xx_hal_dac.c ****   /* Conversion complete callback */
1716:Drivers/STM32L4xx_HAL_Driver/Src/stm32l4xx_hal_dac.c **** #if (USE_HAL_DAC_REGISTER_CALLBACKS == 1)
ARM GAS  /tmp/cc4ENhcr.s 			page 48


1717:Drivers/STM32L4xx_HAL_Driver/Src/stm32l4xx_hal_dac.c ****   hdac->ConvHalfCpltCallbackCh1(hdac);
1718:Drivers/STM32L4xx_HAL_Driver/Src/stm32l4xx_hal_dac.c **** #else
1719:Drivers/STM32L4xx_HAL_Driver/Src/stm32l4xx_hal_dac.c ****   HAL_DAC_ConvHalfCpltCallbackCh1(hdac);
 887              		.loc 1 1719 3 view .LVU237
 888 0002 806A     		ldr	r0, [r0, #40]
 889              	.LVL61:
 890              		.loc 1 1719 3 is_stmt 0 view .LVU238
 891 0004 FFF7FEFF 		bl	HAL_DAC_ConvHalfCpltCallbackCh1
 892              	.LVL62:
1720:Drivers/STM32L4xx_HAL_Driver/Src/stm32l4xx_hal_dac.c **** #endif  /* USE_HAL_DAC_REGISTER_CALLBACKS */
1721:Drivers/STM32L4xx_HAL_Driver/Src/stm32l4xx_hal_dac.c **** }
 893              		.loc 1 1721 1 view .LVU239
 894 0008 08BD     		pop	{r3, pc}
 895              		.cfi_endproc
 896              	.LFE151:
 898              		.section	.text.HAL_DAC_ErrorCallbackCh1,"ax",%progbits
 899              		.align	1
 900              		.weak	HAL_DAC_ErrorCallbackCh1
 901              		.syntax unified
 902              		.thumb
 903              		.thumb_func
 904              		.fpu fpv4-sp-d16
 906              	HAL_DAC_ErrorCallbackCh1:
 907              	.LVL63:
 908              	.LFB144:
1100:Drivers/STM32L4xx_HAL_Driver/Src/stm32l4xx_hal_dac.c ****   /* Prevent unused argument(s) compilation warning */
 909              		.loc 1 1100 1 is_stmt 1 view -0
 910              		.cfi_startproc
 911              		@ args = 0, pretend = 0, frame = 0
 912              		@ frame_needed = 0, uses_anonymous_args = 0
 913              		@ link register save eliminated.
1102:Drivers/STM32L4xx_HAL_Driver/Src/stm32l4xx_hal_dac.c **** 
 914              		.loc 1 1102 3 view .LVU241
1107:Drivers/STM32L4xx_HAL_Driver/Src/stm32l4xx_hal_dac.c **** 
 915              		.loc 1 1107 1 is_stmt 0 view .LVU242
 916 0000 7047     		bx	lr
 917              		.cfi_endproc
 918              	.LFE144:
 920              		.section	.text.DAC_DMAErrorCh1,"ax",%progbits
 921              		.align	1
 922              		.global	DAC_DMAErrorCh1
 923              		.syntax unified
 924              		.thumb
 925              		.thumb_func
 926              		.fpu fpv4-sp-d16
 928              	DAC_DMAErrorCh1:
 929              	.LVL64:
 930              	.LFB152:
1722:Drivers/STM32L4xx_HAL_Driver/Src/stm32l4xx_hal_dac.c **** 
1723:Drivers/STM32L4xx_HAL_Driver/Src/stm32l4xx_hal_dac.c **** /**
1724:Drivers/STM32L4xx_HAL_Driver/Src/stm32l4xx_hal_dac.c ****   * @brief  DMA error callback
1725:Drivers/STM32L4xx_HAL_Driver/Src/stm32l4xx_hal_dac.c ****   * @param  hdma pointer to a DMA_HandleTypeDef structure that contains
1726:Drivers/STM32L4xx_HAL_Driver/Src/stm32l4xx_hal_dac.c ****   *                the configuration information for the specified DMA module.
1727:Drivers/STM32L4xx_HAL_Driver/Src/stm32l4xx_hal_dac.c ****   * @retval None
1728:Drivers/STM32L4xx_HAL_Driver/Src/stm32l4xx_hal_dac.c ****   */
1729:Drivers/STM32L4xx_HAL_Driver/Src/stm32l4xx_hal_dac.c **** void DAC_DMAErrorCh1(DMA_HandleTypeDef *hdma)
1730:Drivers/STM32L4xx_HAL_Driver/Src/stm32l4xx_hal_dac.c **** {
ARM GAS  /tmp/cc4ENhcr.s 			page 49


 931              		.loc 1 1730 1 is_stmt 1 view -0
 932              		.cfi_startproc
 933              		@ args = 0, pretend = 0, frame = 0
 934              		@ frame_needed = 0, uses_anonymous_args = 0
 935              		.loc 1 1730 1 is_stmt 0 view .LVU244
 936 0000 10B5     		push	{r4, lr}
 937              	.LCFI19:
 938              		.cfi_def_cfa_offset 8
 939              		.cfi_offset 4, -8
 940              		.cfi_offset 14, -4
1731:Drivers/STM32L4xx_HAL_Driver/Src/stm32l4xx_hal_dac.c ****   DAC_HandleTypeDef *hdac = (DAC_HandleTypeDef *)((DMA_HandleTypeDef *)hdma)->Parent;
 941              		.loc 1 1731 3 is_stmt 1 view .LVU245
 942              		.loc 1 1731 22 is_stmt 0 view .LVU246
 943 0002 846A     		ldr	r4, [r0, #40]
 944              	.LVL65:
1732:Drivers/STM32L4xx_HAL_Driver/Src/stm32l4xx_hal_dac.c **** 
1733:Drivers/STM32L4xx_HAL_Driver/Src/stm32l4xx_hal_dac.c ****   /* Set DAC error code to DMA error */
1734:Drivers/STM32L4xx_HAL_Driver/Src/stm32l4xx_hal_dac.c ****   hdac->ErrorCode |= HAL_DAC_ERROR_DMA;
 945              		.loc 1 1734 3 is_stmt 1 view .LVU247
 946              		.loc 1 1734 19 is_stmt 0 view .LVU248
 947 0004 2369     		ldr	r3, [r4, #16]
 948 0006 43F00403 		orr	r3, r3, #4
 949 000a 2361     		str	r3, [r4, #16]
1735:Drivers/STM32L4xx_HAL_Driver/Src/stm32l4xx_hal_dac.c **** 
1736:Drivers/STM32L4xx_HAL_Driver/Src/stm32l4xx_hal_dac.c **** #if (USE_HAL_DAC_REGISTER_CALLBACKS == 1)
1737:Drivers/STM32L4xx_HAL_Driver/Src/stm32l4xx_hal_dac.c ****   hdac->ErrorCallbackCh1(hdac);
1738:Drivers/STM32L4xx_HAL_Driver/Src/stm32l4xx_hal_dac.c **** #else
1739:Drivers/STM32L4xx_HAL_Driver/Src/stm32l4xx_hal_dac.c ****   HAL_DAC_ErrorCallbackCh1(hdac);
 950              		.loc 1 1739 3 is_stmt 1 view .LVU249
 951 000c 2046     		mov	r0, r4
 952              	.LVL66:
 953              		.loc 1 1739 3 is_stmt 0 view .LVU250
 954 000e FFF7FEFF 		bl	HAL_DAC_ErrorCallbackCh1
 955              	.LVL67:
1740:Drivers/STM32L4xx_HAL_Driver/Src/stm32l4xx_hal_dac.c **** #endif /* USE_HAL_DAC_REGISTER_CALLBACKS */
1741:Drivers/STM32L4xx_HAL_Driver/Src/stm32l4xx_hal_dac.c **** 
1742:Drivers/STM32L4xx_HAL_Driver/Src/stm32l4xx_hal_dac.c ****   hdac->State = HAL_DAC_STATE_READY;
 956              		.loc 1 1742 3 is_stmt 1 view .LVU251
 957              		.loc 1 1742 15 is_stmt 0 view .LVU252
 958 0012 0123     		movs	r3, #1
 959 0014 2371     		strb	r3, [r4, #4]
1743:Drivers/STM32L4xx_HAL_Driver/Src/stm32l4xx_hal_dac.c **** }
 960              		.loc 1 1743 1 view .LVU253
 961 0016 10BD     		pop	{r4, pc}
 962              		.loc 1 1743 1 view .LVU254
 963              		.cfi_endproc
 964              	.LFE152:
 966              		.section	.text.HAL_DAC_DMAUnderrunCallbackCh1,"ax",%progbits
 967              		.align	1
 968              		.weak	HAL_DAC_DMAUnderrunCallbackCh1
 969              		.syntax unified
 970              		.thumb
 971              		.thumb_func
 972              		.fpu fpv4-sp-d16
 974              	HAL_DAC_DMAUnderrunCallbackCh1:
 975              	.LVL68:
 976              	.LFB145:
ARM GAS  /tmp/cc4ENhcr.s 			page 50


1116:Drivers/STM32L4xx_HAL_Driver/Src/stm32l4xx_hal_dac.c ****   /* Prevent unused argument(s) compilation warning */
 977              		.loc 1 1116 1 is_stmt 1 view -0
 978              		.cfi_startproc
 979              		@ args = 0, pretend = 0, frame = 0
 980              		@ frame_needed = 0, uses_anonymous_args = 0
 981              		@ link register save eliminated.
1118:Drivers/STM32L4xx_HAL_Driver/Src/stm32l4xx_hal_dac.c **** 
 982              		.loc 1 1118 3 view .LVU256
1123:Drivers/STM32L4xx_HAL_Driver/Src/stm32l4xx_hal_dac.c **** 
 983              		.loc 1 1123 1 is_stmt 0 view .LVU257
 984 0000 7047     		bx	lr
 985              		.cfi_endproc
 986              	.LFE145:
 988              		.section	.text.HAL_DAC_IRQHandler,"ax",%progbits
 989              		.align	1
 990              		.global	HAL_DAC_IRQHandler
 991              		.syntax unified
 992              		.thumb
 993              		.thumb_func
 994              		.fpu fpv4-sp-d16
 996              	HAL_DAC_IRQHandler:
 997              	.LVL69:
 998              	.LFB140:
 958:Drivers/STM32L4xx_HAL_Driver/Src/stm32l4xx_hal_dac.c ****   if (__HAL_DAC_GET_IT_SOURCE(hdac, DAC_IT_DMAUDR1))
 999              		.loc 1 958 1 is_stmt 1 view -0
 1000              		.cfi_startproc
 1001              		@ args = 0, pretend = 0, frame = 0
 1002              		@ frame_needed = 0, uses_anonymous_args = 0
 958:Drivers/STM32L4xx_HAL_Driver/Src/stm32l4xx_hal_dac.c ****   if (__HAL_DAC_GET_IT_SOURCE(hdac, DAC_IT_DMAUDR1))
 1003              		.loc 1 958 1 is_stmt 0 view .LVU259
 1004 0000 10B5     		push	{r4, lr}
 1005              	.LCFI20:
 1006              		.cfi_def_cfa_offset 8
 1007              		.cfi_offset 4, -8
 1008              		.cfi_offset 14, -4
 1009 0002 0446     		mov	r4, r0
 959:Drivers/STM32L4xx_HAL_Driver/Src/stm32l4xx_hal_dac.c ****   {
 1010              		.loc 1 959 3 is_stmt 1 view .LVU260
 959:Drivers/STM32L4xx_HAL_Driver/Src/stm32l4xx_hal_dac.c ****   {
 1011              		.loc 1 959 7 is_stmt 0 view .LVU261
 1012 0004 0368     		ldr	r3, [r0]
 1013 0006 1A68     		ldr	r2, [r3]
 959:Drivers/STM32L4xx_HAL_Driver/Src/stm32l4xx_hal_dac.c ****   {
 1014              		.loc 1 959 6 view .LVU262
 1015 0008 12F4005F 		tst	r2, #8192
 1016 000c 03D0     		beq	.L69
 962:Drivers/STM32L4xx_HAL_Driver/Src/stm32l4xx_hal_dac.c ****     {
 1017              		.loc 1 962 5 is_stmt 1 view .LVU263
 962:Drivers/STM32L4xx_HAL_Driver/Src/stm32l4xx_hal_dac.c ****     {
 1018              		.loc 1 962 9 is_stmt 0 view .LVU264
 1019 000e 5A6B     		ldr	r2, [r3, #52]
 962:Drivers/STM32L4xx_HAL_Driver/Src/stm32l4xx_hal_dac.c ****     {
 1020              		.loc 1 962 8 view .LVU265
 1021 0010 12F4005F 		tst	r2, #8192
 1022 0014 09D1     		bne	.L72
 1023              	.LVL70:
 1024              	.L69:
ARM GAS  /tmp/cc4ENhcr.s 			page 51


 988:Drivers/STM32L4xx_HAL_Driver/Src/stm32l4xx_hal_dac.c ****   {
 1025              		.loc 1 988 3 is_stmt 1 view .LVU266
 988:Drivers/STM32L4xx_HAL_Driver/Src/stm32l4xx_hal_dac.c ****   {
 1026              		.loc 1 988 6 is_stmt 0 view .LVU267
 1027 0016 2368     		ldr	r3, [r4]
 1028 0018 1A68     		ldr	r2, [r3]
 988:Drivers/STM32L4xx_HAL_Driver/Src/stm32l4xx_hal_dac.c ****   {
 1029              		.loc 1 988 5 view .LVU268
 1030 001a 12F0005F 		tst	r2, #536870912
 1031 001e 03D0     		beq	.L68
 991:Drivers/STM32L4xx_HAL_Driver/Src/stm32l4xx_hal_dac.c ****     {
 1032              		.loc 1 991 5 is_stmt 1 view .LVU269
 991:Drivers/STM32L4xx_HAL_Driver/Src/stm32l4xx_hal_dac.c ****     {
 1033              		.loc 1 991 9 is_stmt 0 view .LVU270
 1034 0020 5A6B     		ldr	r2, [r3, #52]
 991:Drivers/STM32L4xx_HAL_Driver/Src/stm32l4xx_hal_dac.c ****     {
 1035              		.loc 1 991 8 view .LVU271
 1036 0022 12F0005F 		tst	r2, #536870912
 1037 0026 11D1     		bne	.L73
 1038              	.L68:
1017:Drivers/STM32L4xx_HAL_Driver/Src/stm32l4xx_hal_dac.c **** 
 1039              		.loc 1 1017 1 view .LVU272
 1040 0028 10BD     		pop	{r4, pc}
 1041              	.LVL71:
 1042              	.L72:
 965:Drivers/STM32L4xx_HAL_Driver/Src/stm32l4xx_hal_dac.c **** 
 1043              		.loc 1 965 7 is_stmt 1 view .LVU273
 965:Drivers/STM32L4xx_HAL_Driver/Src/stm32l4xx_hal_dac.c **** 
 1044              		.loc 1 965 19 is_stmt 0 view .LVU274
 1045 002a 0422     		movs	r2, #4
 1046 002c 0271     		strb	r2, [r0, #4]
 968:Drivers/STM32L4xx_HAL_Driver/Src/stm32l4xx_hal_dac.c **** 
 1047              		.loc 1 968 7 is_stmt 1 view .LVU275
 1048 002e 0269     		ldr	r2, [r0, #16]
 1049 0030 42F00102 		orr	r2, r2, #1
 1050 0034 0261     		str	r2, [r0, #16]
 971:Drivers/STM32L4xx_HAL_Driver/Src/stm32l4xx_hal_dac.c **** 
 1051              		.loc 1 971 7 view .LVU276
 1052 0036 4FF40052 		mov	r2, #8192
 1053 003a 5A63     		str	r2, [r3, #52]
 974:Drivers/STM32L4xx_HAL_Driver/Src/stm32l4xx_hal_dac.c **** 
 1054              		.loc 1 974 7 view .LVU277
 1055 003c 0268     		ldr	r2, [r0]
 1056 003e 1368     		ldr	r3, [r2]
 1057 0040 23F48053 		bic	r3, r3, #4096
 1058 0044 1360     		str	r3, [r2]
 980:Drivers/STM32L4xx_HAL_Driver/Src/stm32l4xx_hal_dac.c **** #endif /* USE_HAL_DAC_REGISTER_CALLBACKS */
 1059              		.loc 1 980 7 view .LVU278
 1060 0046 FFF7FEFF 		bl	HAL_DAC_DMAUnderrunCallbackCh1
 1061              	.LVL72:
 980:Drivers/STM32L4xx_HAL_Driver/Src/stm32l4xx_hal_dac.c **** #endif /* USE_HAL_DAC_REGISTER_CALLBACKS */
 1062              		.loc 1 980 7 is_stmt 0 view .LVU279
 1063 004a E4E7     		b	.L69
 1064              	.L73:
 994:Drivers/STM32L4xx_HAL_Driver/Src/stm32l4xx_hal_dac.c **** 
 1065              		.loc 1 994 7 is_stmt 1 view .LVU280
 994:Drivers/STM32L4xx_HAL_Driver/Src/stm32l4xx_hal_dac.c **** 
ARM GAS  /tmp/cc4ENhcr.s 			page 52


 1066              		.loc 1 994 19 is_stmt 0 view .LVU281
 1067 004c 0422     		movs	r2, #4
 1068 004e 2271     		strb	r2, [r4, #4]
 997:Drivers/STM32L4xx_HAL_Driver/Src/stm32l4xx_hal_dac.c **** 
 1069              		.loc 1 997 7 is_stmt 1 view .LVU282
 1070 0050 2269     		ldr	r2, [r4, #16]
 1071 0052 42F00202 		orr	r2, r2, #2
 1072 0056 2261     		str	r2, [r4, #16]
1000:Drivers/STM32L4xx_HAL_Driver/Src/stm32l4xx_hal_dac.c **** 
 1073              		.loc 1 1000 7 view .LVU283
 1074 0058 4FF00052 		mov	r2, #536870912
 1075 005c 5A63     		str	r2, [r3, #52]
1003:Drivers/STM32L4xx_HAL_Driver/Src/stm32l4xx_hal_dac.c **** 
 1076              		.loc 1 1003 7 view .LVU284
 1077 005e 2268     		ldr	r2, [r4]
 1078 0060 1368     		ldr	r3, [r2]
 1079 0062 23F08053 		bic	r3, r3, #268435456
 1080 0066 1360     		str	r3, [r2]
1009:Drivers/STM32L4xx_HAL_Driver/Src/stm32l4xx_hal_dac.c **** #endif /* USE_HAL_DAC_REGISTER_CALLBACKS */
 1081              		.loc 1 1009 7 view .LVU285
 1082 0068 2046     		mov	r0, r4
 1083 006a FFF7FEFF 		bl	HAL_DACEx_DMAUnderrunCallbackCh2
 1084              	.LVL73:
1017:Drivers/STM32L4xx_HAL_Driver/Src/stm32l4xx_hal_dac.c **** 
 1085              		.loc 1 1017 1 is_stmt 0 view .LVU286
 1086 006e DBE7     		b	.L68
 1087              		.cfi_endproc
 1088              	.LFE140:
 1090              		.section	.text.HAL_DAC_GetValue,"ax",%progbits
 1091              		.align	1
 1092              		.global	HAL_DAC_GetValue
 1093              		.syntax unified
 1094              		.thumb
 1095              		.thumb_func
 1096              		.fpu fpv4-sp-d16
 1098              	HAL_DAC_GetValue:
 1099              	.LVL74:
 1100              	.LFB146:
1155:Drivers/STM32L4xx_HAL_Driver/Src/stm32l4xx_hal_dac.c ****   /* Check the parameters */
 1101              		.loc 1 1155 1 is_stmt 1 view -0
 1102              		.cfi_startproc
 1103              		@ args = 0, pretend = 0, frame = 0
 1104              		@ frame_needed = 0, uses_anonymous_args = 0
 1105              		@ link register save eliminated.
1157:Drivers/STM32L4xx_HAL_Driver/Src/stm32l4xx_hal_dac.c **** 
 1106              		.loc 1 1157 3 view .LVU288
1171:Drivers/STM32L4xx_HAL_Driver/Src/stm32l4xx_hal_dac.c ****   {
 1107              		.loc 1 1171 3 view .LVU289
1171:Drivers/STM32L4xx_HAL_Driver/Src/stm32l4xx_hal_dac.c ****   {
 1108              		.loc 1 1171 5 is_stmt 0 view .LVU290
 1109 0000 11B9     		cbnz	r1, .L75
1173:Drivers/STM32L4xx_HAL_Driver/Src/stm32l4xx_hal_dac.c ****   }
 1110              		.loc 1 1173 5 is_stmt 1 view .LVU291
1173:Drivers/STM32L4xx_HAL_Driver/Src/stm32l4xx_hal_dac.c ****   }
 1111              		.loc 1 1173 16 is_stmt 0 view .LVU292
 1112 0002 0368     		ldr	r3, [r0]
1173:Drivers/STM32L4xx_HAL_Driver/Src/stm32l4xx_hal_dac.c ****   }
ARM GAS  /tmp/cc4ENhcr.s 			page 53


 1113              		.loc 1 1173 26 view .LVU293
 1114 0004 D86A     		ldr	r0, [r3, #44]
 1115              	.LVL75:
1173:Drivers/STM32L4xx_HAL_Driver/Src/stm32l4xx_hal_dac.c ****   }
 1116              		.loc 1 1173 26 view .LVU294
 1117 0006 7047     		bx	lr
 1118              	.LVL76:
 1119              	.L75:
1177:Drivers/STM32L4xx_HAL_Driver/Src/stm32l4xx_hal_dac.c ****   }
 1120              		.loc 1 1177 5 is_stmt 1 view .LVU295
1177:Drivers/STM32L4xx_HAL_Driver/Src/stm32l4xx_hal_dac.c ****   }
 1121              		.loc 1 1177 16 is_stmt 0 view .LVU296
 1122 0008 0368     		ldr	r3, [r0]
1177:Drivers/STM32L4xx_HAL_Driver/Src/stm32l4xx_hal_dac.c ****   }
 1123              		.loc 1 1177 26 view .LVU297
 1124 000a 186B     		ldr	r0, [r3, #48]
 1125              	.LVL77:
1183:Drivers/STM32L4xx_HAL_Driver/Src/stm32l4xx_hal_dac.c **** 
 1126              		.loc 1 1183 1 view .LVU298
 1127 000c 7047     		bx	lr
 1128              		.cfi_endproc
 1129              	.LFE146:
 1131              		.section	.text.HAL_DAC_ConfigChannel,"ax",%progbits
 1132              		.align	1
 1133              		.global	HAL_DAC_ConfigChannel
 1134              		.syntax unified
 1135              		.thumb
 1136              		.thumb_func
 1137              		.fpu fpv4-sp-d16
 1139              	HAL_DAC_ConfigChannel:
 1140              	.LVL78:
 1141              	.LFB147:
1202:Drivers/STM32L4xx_HAL_Driver/Src/stm32l4xx_hal_dac.c ****   uint32_t tmpreg1;
 1142              		.loc 1 1202 1 is_stmt 1 view -0
 1143              		.cfi_startproc
 1144              		@ args = 0, pretend = 0, frame = 0
 1145              		@ frame_needed = 0, uses_anonymous_args = 0
1202:Drivers/STM32L4xx_HAL_Driver/Src/stm32l4xx_hal_dac.c ****   uint32_t tmpreg1;
 1146              		.loc 1 1202 1 is_stmt 0 view .LVU300
 1147 0000 F8B5     		push	{r3, r4, r5, r6, r7, lr}
 1148              	.LCFI21:
 1149              		.cfi_def_cfa_offset 24
 1150              		.cfi_offset 3, -24
 1151              		.cfi_offset 4, -20
 1152              		.cfi_offset 5, -16
 1153              		.cfi_offset 6, -12
 1154              		.cfi_offset 7, -8
 1155              		.cfi_offset 14, -4
1203:Drivers/STM32L4xx_HAL_Driver/Src/stm32l4xx_hal_dac.c ****   uint32_t tmpreg2;
 1156              		.loc 1 1203 3 is_stmt 1 view .LVU301
1204:Drivers/STM32L4xx_HAL_Driver/Src/stm32l4xx_hal_dac.c ****   uint32_t tickstart = 0U;
 1157              		.loc 1 1204 3 view .LVU302
1205:Drivers/STM32L4xx_HAL_Driver/Src/stm32l4xx_hal_dac.c **** #if defined (STM32L4P5xx) || defined (STM32L4Q5xx) || defined (STM32L4R5xx) || defined (STM32L4R7xx
 1158              		.loc 1 1205 3 view .LVU303
 1159              	.LVL79:
1214:Drivers/STM32L4xx_HAL_Driver/Src/stm32l4xx_hal_dac.c ****   assert_param(IS_DAC_OUTPUT_BUFFER_STATE(sConfig->DAC_OutputBuffer));
 1160              		.loc 1 1214 3 view .LVU304
ARM GAS  /tmp/cc4ENhcr.s 			page 54


1215:Drivers/STM32L4xx_HAL_Driver/Src/stm32l4xx_hal_dac.c ****   assert_param(IS_DAC_CHIP_CONNECTION(sConfig->DAC_ConnectOnChipPeripheral));
 1161              		.loc 1 1215 3 view .LVU305
1216:Drivers/STM32L4xx_HAL_Driver/Src/stm32l4xx_hal_dac.c ****   assert_param(IS_DAC_TRIMMING(sConfig->DAC_UserTrimming));
 1162              		.loc 1 1216 3 view .LVU306
1217:Drivers/STM32L4xx_HAL_Driver/Src/stm32l4xx_hal_dac.c ****   if ((sConfig->DAC_UserTrimming) == DAC_TRIMMING_USER)
 1163              		.loc 1 1217 3 view .LVU307
1218:Drivers/STM32L4xx_HAL_Driver/Src/stm32l4xx_hal_dac.c ****   {
 1164              		.loc 1 1218 3 view .LVU308
1220:Drivers/STM32L4xx_HAL_Driver/Src/stm32l4xx_hal_dac.c ****   }
 1165              		.loc 1 1220 5 view .LVU309
1222:Drivers/STM32L4xx_HAL_Driver/Src/stm32l4xx_hal_dac.c ****   if ((sConfig->DAC_SampleAndHold) == DAC_SAMPLEANDHOLD_ENABLE)
 1166              		.loc 1 1222 3 view .LVU310
1223:Drivers/STM32L4xx_HAL_Driver/Src/stm32l4xx_hal_dac.c ****   {
 1167              		.loc 1 1223 3 view .LVU311
1225:Drivers/STM32L4xx_HAL_Driver/Src/stm32l4xx_hal_dac.c ****     assert_param(IS_DAC_HOLDTIME(sConfig->DAC_SampleAndHoldConfig.DAC_HoldTime));
 1168              		.loc 1 1225 5 view .LVU312
1226:Drivers/STM32L4xx_HAL_Driver/Src/stm32l4xx_hal_dac.c ****     assert_param(IS_DAC_REFRESHTIME(sConfig->DAC_SampleAndHoldConfig.DAC_RefreshTime));
 1169              		.loc 1 1226 5 view .LVU313
1227:Drivers/STM32L4xx_HAL_Driver/Src/stm32l4xx_hal_dac.c ****   }
 1170              		.loc 1 1227 5 view .LVU314
1229:Drivers/STM32L4xx_HAL_Driver/Src/stm32l4xx_hal_dac.c **** 
 1171              		.loc 1 1229 3 view .LVU315
1232:Drivers/STM32L4xx_HAL_Driver/Src/stm32l4xx_hal_dac.c **** 
 1172              		.loc 1 1232 3 view .LVU316
1232:Drivers/STM32L4xx_HAL_Driver/Src/stm32l4xx_hal_dac.c **** 
 1173              		.loc 1 1232 3 view .LVU317
 1174 0002 4379     		ldrb	r3, [r0, #5]	@ zero_extendqisi2
 1175 0004 012B     		cmp	r3, #1
 1176 0006 00F09580 		beq	.L86
 1177 000a 0446     		mov	r4, r0
 1178 000c 0D46     		mov	r5, r1
 1179 000e 1646     		mov	r6, r2
1232:Drivers/STM32L4xx_HAL_Driver/Src/stm32l4xx_hal_dac.c **** 
 1180              		.loc 1 1232 3 discriminator 2 view .LVU318
 1181 0010 0123     		movs	r3, #1
 1182 0012 4371     		strb	r3, [r0, #5]
1232:Drivers/STM32L4xx_HAL_Driver/Src/stm32l4xx_hal_dac.c **** 
 1183              		.loc 1 1232 3 discriminator 2 view .LVU319
1235:Drivers/STM32L4xx_HAL_Driver/Src/stm32l4xx_hal_dac.c **** 
 1184              		.loc 1 1235 3 discriminator 2 view .LVU320
1235:Drivers/STM32L4xx_HAL_Driver/Src/stm32l4xx_hal_dac.c **** 
 1185              		.loc 1 1235 15 is_stmt 0 discriminator 2 view .LVU321
 1186 0014 0223     		movs	r3, #2
 1187 0016 0371     		strb	r3, [r0, #4]
1237:Drivers/STM32L4xx_HAL_Driver/Src/stm32l4xx_hal_dac.c ****   /* Sample on old configuration */
 1188              		.loc 1 1237 3 is_stmt 1 discriminator 2 view .LVU322
1237:Drivers/STM32L4xx_HAL_Driver/Src/stm32l4xx_hal_dac.c ****   /* Sample on old configuration */
 1189              		.loc 1 1237 14 is_stmt 0 discriminator 2 view .LVU323
 1190 0018 0B68     		ldr	r3, [r1]
1237:Drivers/STM32L4xx_HAL_Driver/Src/stm32l4xx_hal_dac.c ****   /* Sample on old configuration */
 1191              		.loc 1 1237 6 discriminator 2 view .LVU324
 1192 001a 042B     		cmp	r3, #4
 1193 001c 32D0     		beq	.L88
 1194              	.LVL80:
 1195              	.L79:
1294:Drivers/STM32L4xx_HAL_Driver/Src/stm32l4xx_hal_dac.c ****   /* USER TRIMMING */
 1196              		.loc 1 1294 3 is_stmt 1 view .LVU325
ARM GAS  /tmp/cc4ENhcr.s 			page 55


1294:Drivers/STM32L4xx_HAL_Driver/Src/stm32l4xx_hal_dac.c ****   /* USER TRIMMING */
 1197              		.loc 1 1294 14 is_stmt 0 view .LVU326
 1198 001e 2B69     		ldr	r3, [r5, #16]
1294:Drivers/STM32L4xx_HAL_Driver/Src/stm32l4xx_hal_dac.c ****   /* USER TRIMMING */
 1199              		.loc 1 1294 6 view .LVU327
 1200 0020 012B     		cmp	r3, #1
 1201 0022 7AD0     		beq	.L89
 1202              	.L85:
1312:Drivers/STM32L4xx_HAL_Driver/Src/stm32l4xx_hal_dac.c ****   /* Clear DAC_MCR_MODEx bits */
 1203              		.loc 1 1312 3 is_stmt 1 view .LVU328
1312:Drivers/STM32L4xx_HAL_Driver/Src/stm32l4xx_hal_dac.c ****   /* Clear DAC_MCR_MODEx bits */
 1204              		.loc 1 1312 17 is_stmt 0 view .LVU329
 1205 0024 2068     		ldr	r0, [r4]
1312:Drivers/STM32L4xx_HAL_Driver/Src/stm32l4xx_hal_dac.c ****   /* Clear DAC_MCR_MODEx bits */
 1206              		.loc 1 1312 11 view .LVU330
 1207 0026 C36B     		ldr	r3, [r0, #60]
 1208              	.LVL81:
1314:Drivers/STM32L4xx_HAL_Driver/Src/stm32l4xx_hal_dac.c ****   /* Configure for the selected DAC channel: mode, buffer output & on chip peripheral connect */
 1209              		.loc 1 1314 3 is_stmt 1 view .LVU331
1314:Drivers/STM32L4xx_HAL_Driver/Src/stm32l4xx_hal_dac.c ****   /* Configure for the selected DAC channel: mode, buffer output & on chip peripheral connect */
 1210              		.loc 1 1314 56 is_stmt 0 view .LVU332
 1211 0028 06F01002 		and	r2, r6, #16
1314:Drivers/STM32L4xx_HAL_Driver/Src/stm32l4xx_hal_dac.c ****   /* Configure for the selected DAC channel: mode, buffer output & on chip peripheral connect */
 1212              		.loc 1 1314 44 view .LVU333
 1213 002c 0721     		movs	r1, #7
 1214 002e 9140     		lsls	r1, r1, r2
1314:Drivers/STM32L4xx_HAL_Driver/Src/stm32l4xx_hal_dac.c ****   /* Configure for the selected DAC channel: mode, buffer output & on chip peripheral connect */
 1215              		.loc 1 1314 11 view .LVU334
 1216 0030 23EA0101 		bic	r1, r3, r1
 1217              	.LVL82:
1316:Drivers/STM32L4xx_HAL_Driver/Src/stm32l4xx_hal_dac.c ****   /* Calculate MCR register value depending on DAC_Channel */
 1218              		.loc 1 1316 3 is_stmt 1 view .LVU335
1316:Drivers/STM32L4xx_HAL_Driver/Src/stm32l4xx_hal_dac.c ****   /* Calculate MCR register value depending on DAC_Channel */
 1219              		.loc 1 1316 21 is_stmt 0 view .LVU336
 1220 0034 2B68     		ldr	r3, [r5]
1316:Drivers/STM32L4xx_HAL_Driver/Src/stm32l4xx_hal_dac.c ****   /* Calculate MCR register value depending on DAC_Channel */
 1221              		.loc 1 1316 50 view .LVU337
 1222 0036 AE68     		ldr	r6, [r5, #8]
 1223              	.LVL83:
1316:Drivers/STM32L4xx_HAL_Driver/Src/stm32l4xx_hal_dac.c ****   /* Calculate MCR register value depending on DAC_Channel */
 1224              		.loc 1 1316 41 view .LVU338
 1225 0038 3343     		orrs	r3, r3, r6
1316:Drivers/STM32L4xx_HAL_Driver/Src/stm32l4xx_hal_dac.c ****   /* Calculate MCR register value depending on DAC_Channel */
 1226              		.loc 1 1316 78 view .LVU339
 1227 003a EE68     		ldr	r6, [r5, #12]
1316:Drivers/STM32L4xx_HAL_Driver/Src/stm32l4xx_hal_dac.c ****   /* Calculate MCR register value depending on DAC_Channel */
 1228              		.loc 1 1316 11 view .LVU340
 1229 003c 3343     		orrs	r3, r3, r6
 1230              	.LVL84:
1318:Drivers/STM32L4xx_HAL_Driver/Src/stm32l4xx_hal_dac.c ****   /* Write to DAC MCR */
 1231              		.loc 1 1318 3 is_stmt 1 view .LVU341
1318:Drivers/STM32L4xx_HAL_Driver/Src/stm32l4xx_hal_dac.c ****   /* Write to DAC MCR */
 1232              		.loc 1 1318 22 is_stmt 0 view .LVU342
 1233 003e 9340     		lsls	r3, r3, r2
 1234              	.LVL85:
1318:Drivers/STM32L4xx_HAL_Driver/Src/stm32l4xx_hal_dac.c ****   /* Write to DAC MCR */
 1235              		.loc 1 1318 11 view .LVU343
ARM GAS  /tmp/cc4ENhcr.s 			page 56


 1236 0040 0B43     		orrs	r3, r3, r1
 1237              	.LVL86:
1320:Drivers/STM32L4xx_HAL_Driver/Src/stm32l4xx_hal_dac.c **** 
 1238              		.loc 1 1320 3 is_stmt 1 view .LVU344
1320:Drivers/STM32L4xx_HAL_Driver/Src/stm32l4xx_hal_dac.c **** 
 1239              		.loc 1 1320 23 is_stmt 0 view .LVU345
 1240 0042 C363     		str	r3, [r0, #60]
 1241              	.LVL87:
1323:Drivers/STM32L4xx_HAL_Driver/Src/stm32l4xx_hal_dac.c **** 
 1242              		.loc 1 1323 3 is_stmt 1 view .LVU346
 1243 0044 2068     		ldr	r0, [r4]
 1244 0046 0368     		ldr	r3, [r0]
 1245              	.LVL88:
1323:Drivers/STM32L4xx_HAL_Driver/Src/stm32l4xx_hal_dac.c **** 
 1246              		.loc 1 1323 3 is_stmt 0 view .LVU347
 1247 0048 4FF48041 		mov	r1, #16384
 1248 004c 9140     		lsls	r1, r1, r2
 1249 004e 23EA0103 		bic	r3, r3, r1
 1250 0052 0360     		str	r3, [r0]
1326:Drivers/STM32L4xx_HAL_Driver/Src/stm32l4xx_hal_dac.c ****   /* Clear TENx, TSELx, WAVEx and MAMPx bits */
 1251              		.loc 1 1326 3 is_stmt 1 view .LVU348
1326:Drivers/STM32L4xx_HAL_Driver/Src/stm32l4xx_hal_dac.c ****   /* Clear TENx, TSELx, WAVEx and MAMPx bits */
 1252              		.loc 1 1326 17 is_stmt 0 view .LVU349
 1253 0054 2068     		ldr	r0, [r4]
1326:Drivers/STM32L4xx_HAL_Driver/Src/stm32l4xx_hal_dac.c ****   /* Clear TENx, TSELx, WAVEx and MAMPx bits */
 1254              		.loc 1 1326 11 view .LVU350
 1255 0056 0368     		ldr	r3, [r0]
 1256              	.LVL89:
1328:Drivers/STM32L4xx_HAL_Driver/Src/stm32l4xx_hal_dac.c ****   /* Configure for the selected DAC channel: trigger */
 1257              		.loc 1 1328 3 is_stmt 1 view .LVU351
1328:Drivers/STM32L4xx_HAL_Driver/Src/stm32l4xx_hal_dac.c ****   /* Configure for the selected DAC channel: trigger */
 1258              		.loc 1 1328 87 is_stmt 0 view .LVU352
 1259 0058 40F6FC71 		movw	r1, #4092
 1260 005c 9140     		lsls	r1, r1, r2
1328:Drivers/STM32L4xx_HAL_Driver/Src/stm32l4xx_hal_dac.c ****   /* Configure for the selected DAC channel: trigger */
 1261              		.loc 1 1328 11 view .LVU353
 1262 005e 23EA0101 		bic	r1, r3, r1
 1263              	.LVL90:
1331:Drivers/STM32L4xx_HAL_Driver/Src/stm32l4xx_hal_dac.c ****   /* Calculate CR register value depending on DAC_Channel */
 1264              		.loc 1 1331 3 is_stmt 1 view .LVU354
1331:Drivers/STM32L4xx_HAL_Driver/Src/stm32l4xx_hal_dac.c ****   /* Calculate CR register value depending on DAC_Channel */
 1265              		.loc 1 1331 11 is_stmt 0 view .LVU355
 1266 0062 6B68     		ldr	r3, [r5, #4]
 1267              	.LVL91:
1333:Drivers/STM32L4xx_HAL_Driver/Src/stm32l4xx_hal_dac.c **** #if defined (STM32L4P5xx) || defined (STM32L4Q5xx) || defined (STM32L4R5xx) || defined (STM32L4R7xx
 1268              		.loc 1 1333 3 is_stmt 1 view .LVU356
1333:Drivers/STM32L4xx_HAL_Driver/Src/stm32l4xx_hal_dac.c **** #if defined (STM32L4P5xx) || defined (STM32L4Q5xx) || defined (STM32L4R5xx) || defined (STM32L4R7xx
 1269              		.loc 1 1333 22 is_stmt 0 view .LVU357
 1270 0064 9340     		lsls	r3, r3, r2
 1271              	.LVL92:
1333:Drivers/STM32L4xx_HAL_Driver/Src/stm32l4xx_hal_dac.c **** #if defined (STM32L4P5xx) || defined (STM32L4Q5xx) || defined (STM32L4R5xx) || defined (STM32L4R7xx
 1272              		.loc 1 1333 11 view .LVU358
 1273 0066 0B43     		orrs	r3, r3, r1
 1274              	.LVL93:
1364:Drivers/STM32L4xx_HAL_Driver/Src/stm32l4xx_hal_dac.c ****   /* Disable wave generation */
 1275              		.loc 1 1364 3 is_stmt 1 view .LVU359
1364:Drivers/STM32L4xx_HAL_Driver/Src/stm32l4xx_hal_dac.c ****   /* Disable wave generation */
ARM GAS  /tmp/cc4ENhcr.s 			page 57


 1276              		.loc 1 1364 22 is_stmt 0 view .LVU360
 1277 0068 0360     		str	r3, [r0]
 1278              	.LVL94:
1366:Drivers/STM32L4xx_HAL_Driver/Src/stm32l4xx_hal_dac.c **** 
 1279              		.loc 1 1366 3 is_stmt 1 view .LVU361
1366:Drivers/STM32L4xx_HAL_Driver/Src/stm32l4xx_hal_dac.c **** 
 1280              		.loc 1 1366 7 is_stmt 0 view .LVU362
 1281 006a 2068     		ldr	r0, [r4]
1366:Drivers/STM32L4xx_HAL_Driver/Src/stm32l4xx_hal_dac.c **** 
 1282              		.loc 1 1366 22 view .LVU363
 1283 006c 0368     		ldr	r3, [r0]
 1284              	.LVL95:
1366:Drivers/STM32L4xx_HAL_Driver/Src/stm32l4xx_hal_dac.c **** 
 1285              		.loc 1 1366 40 view .LVU364
 1286 006e C021     		movs	r1, #192
 1287 0070 01FA02F2 		lsl	r2, r1, r2
1366:Drivers/STM32L4xx_HAL_Driver/Src/stm32l4xx_hal_dac.c **** 
 1288              		.loc 1 1366 22 view .LVU365
 1289 0074 23EA0202 		bic	r2, r3, r2
 1290 0078 0260     		str	r2, [r0]
1369:Drivers/STM32L4xx_HAL_Driver/Src/stm32l4xx_hal_dac.c **** 
 1291              		.loc 1 1369 3 is_stmt 1 view .LVU366
1369:Drivers/STM32L4xx_HAL_Driver/Src/stm32l4xx_hal_dac.c **** 
 1292              		.loc 1 1369 15 is_stmt 0 view .LVU367
 1293 007a 0123     		movs	r3, #1
 1294 007c 2371     		strb	r3, [r4, #4]
1372:Drivers/STM32L4xx_HAL_Driver/Src/stm32l4xx_hal_dac.c **** 
 1295              		.loc 1 1372 3 is_stmt 1 view .LVU368
1372:Drivers/STM32L4xx_HAL_Driver/Src/stm32l4xx_hal_dac.c **** 
 1296              		.loc 1 1372 3 view .LVU369
 1297 007e 0020     		movs	r0, #0
 1298 0080 6071     		strb	r0, [r4, #5]
1372:Drivers/STM32L4xx_HAL_Driver/Src/stm32l4xx_hal_dac.c **** 
 1299              		.loc 1 1372 3 view .LVU370
1375:Drivers/STM32L4xx_HAL_Driver/Src/stm32l4xx_hal_dac.c **** }
 1300              		.loc 1 1375 3 view .LVU371
 1301              	.LVL96:
 1302              	.L78:
1376:Drivers/STM32L4xx_HAL_Driver/Src/stm32l4xx_hal_dac.c **** 
 1303              		.loc 1 1376 1 is_stmt 0 view .LVU372
 1304 0082 F8BD     		pop	{r3, r4, r5, r6, r7, pc}
 1305              	.LVL97:
 1306              	.L88:
1241:Drivers/STM32L4xx_HAL_Driver/Src/stm32l4xx_hal_dac.c **** 
 1307              		.loc 1 1241 5 is_stmt 1 view .LVU373
1241:Drivers/STM32L4xx_HAL_Driver/Src/stm32l4xx_hal_dac.c **** 
 1308              		.loc 1 1241 17 is_stmt 0 view .LVU374
 1309 0084 FFF7FEFF 		bl	HAL_GetTick
 1310              	.LVL98:
1241:Drivers/STM32L4xx_HAL_Driver/Src/stm32l4xx_hal_dac.c **** 
 1311              		.loc 1 1241 17 view .LVU375
 1312 0088 0746     		mov	r7, r0
 1313              	.LVL99:
1243:Drivers/STM32L4xx_HAL_Driver/Src/stm32l4xx_hal_dac.c ****     {
 1314              		.loc 1 1243 5 is_stmt 1 view .LVU376
1243:Drivers/STM32L4xx_HAL_Driver/Src/stm32l4xx_hal_dac.c ****     {
 1315              		.loc 1 1243 8 is_stmt 0 view .LVU377
ARM GAS  /tmp/cc4ENhcr.s 			page 58


 1316 008a 7EB1     		cbz	r6, .L80
 1317              	.LVL100:
 1318              	.L81:
1269:Drivers/STM32L4xx_HAL_Driver/Src/stm32l4xx_hal_dac.c ****       {
 1319              		.loc 1 1269 13 is_stmt 1 view .LVU378
1269:Drivers/STM32L4xx_HAL_Driver/Src/stm32l4xx_hal_dac.c ****       {
 1320              		.loc 1 1269 20 is_stmt 0 view .LVU379
 1321 008c 2368     		ldr	r3, [r4]
1269:Drivers/STM32L4xx_HAL_Driver/Src/stm32l4xx_hal_dac.c ****       {
 1322              		.loc 1 1269 30 view .LVU380
 1323 008e 5B6B     		ldr	r3, [r3, #52]
1269:Drivers/STM32L4xx_HAL_Driver/Src/stm32l4xx_hal_dac.c ****       {
 1324              		.loc 1 1269 13 view .LVU381
 1325 0090 002B     		cmp	r3, #0
 1326 0092 3BDA     		bge	.L90
1272:Drivers/STM32L4xx_HAL_Driver/Src/stm32l4xx_hal_dac.c ****         {
 1327              		.loc 1 1272 9 is_stmt 1 view .LVU382
1272:Drivers/STM32L4xx_HAL_Driver/Src/stm32l4xx_hal_dac.c ****         {
 1328              		.loc 1 1272 14 is_stmt 0 view .LVU383
 1329 0094 FFF7FEFF 		bl	HAL_GetTick
 1330              	.LVL101:
1272:Drivers/STM32L4xx_HAL_Driver/Src/stm32l4xx_hal_dac.c ****         {
 1331              		.loc 1 1272 28 view .LVU384
 1332 0098 C01B     		subs	r0, r0, r7
1272:Drivers/STM32L4xx_HAL_Driver/Src/stm32l4xx_hal_dac.c ****         {
 1333              		.loc 1 1272 12 view .LVU385
